;******************************************************************************
;* MSP430 C/C++ Codegen                                        PC v18.1.4.LTS *
;* Date/Time created: Wed May  8 16:39:02 2019                                *
;******************************************************************************
	.compiler_opts --abi=eabi --diag_wrap=off --hll_source=on --mem_model:code=small --mem_model:data=small --object_format=elf --silicon_version=msp --symdebug:dwarf --symdebug:dwarf_version=3 

$C$DW$CU	.dwtag  DW_TAG_compile_unit
	.dwattr $C$DW$CU, DW_AT_name("../main.c")
	.dwattr $C$DW$CU, DW_AT_producer("TI MSP430 C/C++ Codegen PC v18.1.4.LTS Copyright (c) 2003-2018 Texas Instruments Incorporated")
	.dwattr $C$DW$CU, DW_AT_TI_version(0x01)
	.dwattr $C$DW$CU, DW_AT_comp_dir("E:\MicroP\Final Project\TX in C\Debug")
$C$DW$1	.dwtag  DW_TAG_variable
	.dwattr $C$DW$1, DW_AT_name("IFG2")
	.dwattr $C$DW$1, DW_AT_TI_symbol_name("IFG2")
	.dwattr $C$DW$1, DW_AT_type(*$C$DW$T$38)
	.dwattr $C$DW$1, DW_AT_declaration
	.dwattr $C$DW$1, DW_AT_external
	.dwattr $C$DW$1, DW_AT_decl_file("C:\ti\ccsv8\ccs_base\msp430\include\msp430g2553.h")
	.dwattr $C$DW$1, DW_AT_decl_line(0xa4)
	.dwattr $C$DW$1, DW_AT_decl_column(0x01)

$C$DW$2	.dwtag  DW_TAG_variable
	.dwattr $C$DW$2, DW_AT_name("DCOCTL")
	.dwattr $C$DW$2, DW_AT_TI_symbol_name("DCOCTL")
	.dwattr $C$DW$2, DW_AT_type(*$C$DW$T$38)
	.dwattr $C$DW$2, DW_AT_declaration
	.dwattr $C$DW$2, DW_AT_external
	.dwattr $C$DW$2, DW_AT_decl_file("C:\ti\ccsv8\ccs_base\msp430\include\msp430g2553.h")
	.dwattr $C$DW$2, DW_AT_decl_line(0x11f)
	.dwattr $C$DW$2, DW_AT_decl_column(0x01)

$C$DW$3	.dwtag  DW_TAG_variable
	.dwattr $C$DW$3, DW_AT_name("BCSCTL1")
	.dwattr $C$DW$3, DW_AT_TI_symbol_name("BCSCTL1")
	.dwattr $C$DW$3, DW_AT_type(*$C$DW$T$38)
	.dwattr $C$DW$3, DW_AT_declaration
	.dwattr $C$DW$3, DW_AT_external
	.dwattr $C$DW$3, DW_AT_decl_file("C:\ti\ccsv8\ccs_base\msp430\include\msp430g2553.h")
	.dwattr $C$DW$3, DW_AT_decl_line(0x120)
	.dwattr $C$DW$3, DW_AT_decl_column(0x01)

$C$DW$4	.dwtag  DW_TAG_variable
	.dwattr $C$DW$4, DW_AT_name("P1IN")
	.dwattr $C$DW$4, DW_AT_TI_symbol_name("P1IN")
	.dwattr $C$DW$4, DW_AT_type(*$C$DW$T$38)
	.dwattr $C$DW$4, DW_AT_declaration
	.dwattr $C$DW$4, DW_AT_external
	.dwattr $C$DW$4, DW_AT_decl_file("C:\ti\ccsv8\ccs_base\msp430\include\msp430g2553.h")
	.dwattr $C$DW$4, DW_AT_decl_line(0x1ce)
	.dwattr $C$DW$4, DW_AT_decl_column(0x01)

$C$DW$5	.dwtag  DW_TAG_variable
	.dwattr $C$DW$5, DW_AT_name("P1OUT")
	.dwattr $C$DW$5, DW_AT_TI_symbol_name("P1OUT")
	.dwattr $C$DW$5, DW_AT_type(*$C$DW$T$38)
	.dwattr $C$DW$5, DW_AT_declaration
	.dwattr $C$DW$5, DW_AT_external
	.dwattr $C$DW$5, DW_AT_decl_file("C:\ti\ccsv8\ccs_base\msp430\include\msp430g2553.h")
	.dwattr $C$DW$5, DW_AT_decl_line(0x1cf)
	.dwattr $C$DW$5, DW_AT_decl_column(0x01)

$C$DW$6	.dwtag  DW_TAG_variable
	.dwattr $C$DW$6, DW_AT_name("P1DIR")
	.dwattr $C$DW$6, DW_AT_TI_symbol_name("P1DIR")
	.dwattr $C$DW$6, DW_AT_type(*$C$DW$T$38)
	.dwattr $C$DW$6, DW_AT_declaration
	.dwattr $C$DW$6, DW_AT_external
	.dwattr $C$DW$6, DW_AT_decl_file("C:\ti\ccsv8\ccs_base\msp430\include\msp430g2553.h")
	.dwattr $C$DW$6, DW_AT_decl_line(0x1d0)
	.dwattr $C$DW$6, DW_AT_decl_column(0x01)

$C$DW$7	.dwtag  DW_TAG_variable
	.dwattr $C$DW$7, DW_AT_name("P1SEL")
	.dwattr $C$DW$7, DW_AT_TI_symbol_name("P1SEL")
	.dwattr $C$DW$7, DW_AT_type(*$C$DW$T$38)
	.dwattr $C$DW$7, DW_AT_declaration
	.dwattr $C$DW$7, DW_AT_external
	.dwattr $C$DW$7, DW_AT_decl_file("C:\ti\ccsv8\ccs_base\msp430\include\msp430g2553.h")
	.dwattr $C$DW$7, DW_AT_decl_line(0x1d4)
	.dwattr $C$DW$7, DW_AT_decl_column(0x01)

$C$DW$8	.dwtag  DW_TAG_variable
	.dwattr $C$DW$8, DW_AT_name("P1SEL2")
	.dwattr $C$DW$8, DW_AT_TI_symbol_name("P1SEL2")
	.dwattr $C$DW$8, DW_AT_type(*$C$DW$T$38)
	.dwattr $C$DW$8, DW_AT_declaration
	.dwattr $C$DW$8, DW_AT_external
	.dwattr $C$DW$8, DW_AT_decl_file("C:\ti\ccsv8\ccs_base\msp430\include\msp430g2553.h")
	.dwattr $C$DW$8, DW_AT_decl_line(0x1d5)
	.dwattr $C$DW$8, DW_AT_decl_column(0x01)

$C$DW$9	.dwtag  DW_TAG_variable
	.dwattr $C$DW$9, DW_AT_name("UCA0TXBUF")
	.dwattr $C$DW$9, DW_AT_TI_symbol_name("UCA0TXBUF")
	.dwattr $C$DW$9, DW_AT_type(*$C$DW$T$38)
	.dwattr $C$DW$9, DW_AT_declaration
	.dwattr $C$DW$9, DW_AT_external
	.dwattr $C$DW$9, DW_AT_decl_file("C:\ti\ccsv8\ccs_base\msp430\include\msp430g2553.h")
	.dwattr $C$DW$9, DW_AT_decl_line(0x287)
	.dwattr $C$DW$9, DW_AT_decl_column(0x01)

$C$DW$10	.dwtag  DW_TAG_variable
	.dwattr $C$DW$10, DW_AT_name("WDTCTL")
	.dwattr $C$DW$10, DW_AT_TI_symbol_name("WDTCTL")
	.dwattr $C$DW$10, DW_AT_type(*$C$DW$T$76)
	.dwattr $C$DW$10, DW_AT_declaration
	.dwattr $C$DW$10, DW_AT_external
	.dwattr $C$DW$10, DW_AT_decl_file("C:\ti\ccsv8\ccs_base\msp430\include\msp430g2553.h")
	.dwattr $C$DW$10, DW_AT_decl_line(0x343)
	.dwattr $C$DW$10, DW_AT_decl_column(0x01)

$C$DW$11	.dwtag  DW_TAG_variable
	.dwattr $C$DW$11, DW_AT_name("CALDCO_1MHZ")
	.dwattr $C$DW$11, DW_AT_TI_symbol_name("CALDCO_1MHZ")
	.dwattr $C$DW$11, DW_AT_type(*$C$DW$T$38)
	.dwattr $C$DW$11, DW_AT_declaration
	.dwattr $C$DW$11, DW_AT_external
	.dwattr $C$DW$11, DW_AT_decl_file("C:\ti\ccsv8\ccs_base\msp430\include\msp430g2553.h")
	.dwattr $C$DW$11, DW_AT_decl_line(0x378)
	.dwattr $C$DW$11, DW_AT_decl_column(0x01)

$C$DW$12	.dwtag  DW_TAG_variable
	.dwattr $C$DW$12, DW_AT_name("CALBC1_1MHZ")
	.dwattr $C$DW$12, DW_AT_TI_symbol_name("CALBC1_1MHZ")
	.dwattr $C$DW$12, DW_AT_type(*$C$DW$T$38)
	.dwattr $C$DW$12, DW_AT_declaration
	.dwattr $C$DW$12, DW_AT_external
	.dwattr $C$DW$12, DW_AT_decl_file("C:\ti\ccsv8\ccs_base\msp430\include\msp430g2553.h")
	.dwattr $C$DW$12, DW_AT_decl_line(0x379)
	.dwattr $C$DW$12, DW_AT_decl_column(0x01)


$C$DW$13	.dwtag  DW_TAG_subprogram
	.dwattr $C$DW$13, DW_AT_name("pow")
	.dwattr $C$DW$13, DW_AT_TI_symbol_name("pow")
	.dwattr $C$DW$13, DW_AT_type(*$C$DW$T$17)
	.dwattr $C$DW$13, DW_AT_declaration
	.dwattr $C$DW$13, DW_AT_external
	.dwattr $C$DW$13, DW_AT_decl_file("C:/ti/ccsv8/tools/compiler/ti-cgt-msp430_18.1.4.LTS/include/math.h")
	.dwattr $C$DW$13, DW_AT_decl_line(0x16d)
	.dwattr $C$DW$13, DW_AT_decl_column(0x1a)
$C$DW$14	.dwtag  DW_TAG_formal_parameter
	.dwattr $C$DW$14, DW_AT_type(*$C$DW$T$17)

$C$DW$15	.dwtag  DW_TAG_formal_parameter
	.dwattr $C$DW$15, DW_AT_type(*$C$DW$T$17)

	.dwendtag $C$DW$13

	.sect	".const:.string:$P$T0$1"
	.align	2
	.elfsym	$P$T0$1,SYM_SIZE(4)
$P$T0$1:
	.bits	32,8			; $P$T0$1[0] @ 0
	.bits	99,8			; $P$T0$1[1] @ 8
	.bits	109,8			; $P$T0$1[2] @ 16
	.bits	0,8			; $P$T0$1[3] @ 24

$C$DW$16	.dwtag  DW_TAG_variable
	.dwattr $C$DW$16, DW_AT_name("$P$T0$1")
	.dwattr $C$DW$16, DW_AT_TI_symbol_name("$P$T0$1")
	.dwattr $C$DW$16, DW_AT_type(*$C$DW$T$165)
	.dwattr $C$DW$16, DW_AT_location[DW_OP_addr $P$T0$1]
	.dwattr $C$DW$16, DW_AT_decl_file("../main.c")
	.dwattr $C$DW$16, DW_AT_decl_line(0x67)
	.dwattr $C$DW$16, DW_AT_decl_column(0x0d)


$C$DW$17	.dwtag  DW_TAG_subprogram
	.dwattr $C$DW$17, DW_AT_name("memset")
	.dwattr $C$DW$17, DW_AT_TI_symbol_name("memset")
	.dwattr $C$DW$17, DW_AT_type(*$C$DW$T$3)
	.dwattr $C$DW$17, DW_AT_declaration
	.dwattr $C$DW$17, DW_AT_external
	.dwendtag $C$DW$17

;	C:\ti\ccsv8\tools\compiler\ti-cgt-msp430_18.1.4.LTS\bin\opt430.exe C:\\Users\\sscott33\\AppData\\Local\\Temp\\{DE7B7228-8278-494B-B917-5388B490896F} C:\\Users\\sscott33\\AppData\\Local\\Temp\\{A0D45B4F-8C6A-4285-824F-759198EBFC94} 
	.sect	".text:reverse"
	.clink
	.global	reverse

$C$DW$18	.dwtag  DW_TAG_subprogram
	.dwattr $C$DW$18, DW_AT_name("reverse")
	.dwattr $C$DW$18, DW_AT_low_pc(reverse)
	.dwattr $C$DW$18, DW_AT_high_pc(0x00)
	.dwattr $C$DW$18, DW_AT_TI_symbol_name("reverse")
	.dwattr $C$DW$18, DW_AT_external
	.dwattr $C$DW$18, DW_AT_TI_begin_file("../main.c")
	.dwattr $C$DW$18, DW_AT_TI_begin_line(0x0e)
	.dwattr $C$DW$18, DW_AT_TI_begin_column(0x06)
	.dwattr $C$DW$18, DW_AT_decl_file("../main.c")
	.dwattr $C$DW$18, DW_AT_decl_line(0x0e)
	.dwattr $C$DW$18, DW_AT_decl_column(0x06)
	.dwattr $C$DW$18, DW_AT_TI_max_frame_size(0x04)
	.dwpsn	file "../main.c",line 15,column 1,is_stmt,address reverse,isa 0

	.dwfde $C$DW$CIE, reverse
$C$DW$19	.dwtag  DW_TAG_formal_parameter
	.dwattr $C$DW$19, DW_AT_name("str")
	.dwattr $C$DW$19, DW_AT_TI_symbol_name("str")
	.dwattr $C$DW$19, DW_AT_type(*$C$DW$T$28)
	.dwattr $C$DW$19, DW_AT_location[DW_OP_reg12]

$C$DW$20	.dwtag  DW_TAG_formal_parameter
	.dwattr $C$DW$20, DW_AT_name("len")
	.dwattr $C$DW$20, DW_AT_TI_symbol_name("len")
	.dwattr $C$DW$20, DW_AT_type(*$C$DW$T$10)
	.dwattr $C$DW$20, DW_AT_location[DW_OP_reg13]


;*****************************************************************************
;* FUNCTION NAME: reverse                                                    *
;*                                                                           *
;*   Regs Modified     : SP,SR,r10,r11,r13,r14,r15                           *
;*   Regs Used         : SP,SR,r10,r11,r12,r13,r14,r15                       *
;*   Local Frame Size  : 0 Args + 0 Auto + 2 Save = 2 byte                   *
;*****************************************************************************
reverse:
;* --------------------------------------------------------------------------*
	.dwcfi	cfa_offset, 2
	.dwcfi	save_reg_to_mem, 16, -2
        PUSH.W    r10                   ; [] 
	.dwcfi	cfa_offset, 4
	.dwcfi	save_reg_to_mem, 10, -4
;* r12   assigned to str
$C$DW$21	.dwtag  DW_TAG_variable
	.dwattr $C$DW$21, DW_AT_name("str")
	.dwattr $C$DW$21, DW_AT_TI_symbol_name("str")
	.dwattr $C$DW$21, DW_AT_type(*$C$DW$T$28)
	.dwattr $C$DW$21, DW_AT_location[DW_OP_reg12]

;* r15   assigned to i
$C$DW$22	.dwtag  DW_TAG_variable
	.dwattr $C$DW$22, DW_AT_name("i")
	.dwattr $C$DW$22, DW_AT_TI_symbol_name("i")
	.dwattr $C$DW$22, DW_AT_type(*$C$DW$T$10)
	.dwattr $C$DW$22, DW_AT_location[DW_OP_reg15]

;* r13   assigned to j
$C$DW$23	.dwtag  DW_TAG_variable
	.dwattr $C$DW$23, DW_AT_name("j")
	.dwattr $C$DW$23, DW_AT_TI_symbol_name("j")
	.dwattr $C$DW$23, DW_AT_type(*$C$DW$T$10)
	.dwattr $C$DW$23, DW_AT_location[DW_OP_reg13]

;* r10   assigned to temp
$C$DW$24	.dwtag  DW_TAG_variable
	.dwattr $C$DW$24, DW_AT_name("temp")
	.dwattr $C$DW$24, DW_AT_TI_symbol_name("temp")
	.dwattr $C$DW$24, DW_AT_type(*$C$DW$T$6)
	.dwattr $C$DW$24, DW_AT_location[DW_OP_reg10]

	.dwpsn	file "../main.c",line 18,column 15,is_stmt,isa 0
        SUB.W     #1,r13                ; [] |18| 
	.dwpsn	file "../main.c",line 19,column 12,is_stmt,isa 0
        MOV.W     #0,r15                ; [] |19| 
        CMP.W     r13,r15               ; [] |19| 
        JGE       $C$L2                 ; [] |19| 
                                          ; [] |19| 
;* --------------------------------------------------------------------------*
;*   BEGIN LOOP $C$L1
;*
;*   Loop source line                : 19
;*   Loop closing brace source line  : 25
;*   Known Minimum Trip Count        : 1
;*   Known Maximum Trip Count        : 4294967295
;*   Known Max Trip Count Factor     : 1
;* --------------------------------------------------------------------------*
$C$L1:    
	.dwpsn	file "../main.c",line 21,column 9,is_stmt,isa 0
        MOV.W     r12,r14               ; [] |21| 
        ADD.W     r15,r14               ; [] |21| 
        MOV.B     @r14,r10              ; [] |21| 
	.dwpsn	file "../main.c",line 22,column 9,is_stmt,isa 0
        MOV.W     r12,r14               ; [] |22| 
        ADD.W     r13,r14               ; [] |22| 
        MOV.W     r12,r11               ; [] |22| 
        ADD.W     r15,r11               ; [] |22| 
        MOV.B     @r14,0(r11)           ; [] |22| 
	.dwpsn	file "../main.c",line 23,column 9,is_stmt,isa 0
        MOV.W     r12,r14               ; [] |23| 
        ADD.W     r13,r14               ; [] |23| 
        MOV.B     r10,0(r14)            ; [] |23| 
	.dwpsn	file "../main.c",line 19,column 12,is_stmt,isa 0
        SUB.W     #1,r13                ; [] |19| 
        ADD.W     #1,r15                ; [] |19| 
        CMP.W     r13,r15               ; [] |19| 
        JL        $C$L1                 ; [] |19| 
                                          ; [] |19| 
;* --------------------------------------------------------------------------*
$C$L2:    
	.dwpsn	file "../main.c",line 26,column 1,is_stmt,isa 0
        POP       r10                   ; [] 
	.dwcfi	restore_reg, 10
	.dwcfi	cfa_offset, 2
$C$DW$25	.dwtag  DW_TAG_TI_branch
	.dwattr $C$DW$25, DW_AT_low_pc(0x00)
	.dwattr $C$DW$25, DW_AT_TI_return

        RET       ; [] 
        ; [] 
	.dwattr $C$DW$18, DW_AT_TI_end_file("../main.c")
	.dwattr $C$DW$18, DW_AT_TI_end_line(0x1a)
	.dwattr $C$DW$18, DW_AT_TI_end_column(0x01)
	.dwendentry
	.dwendtag $C$DW$18

	.sect	".text:intToStr"
	.clink
	.global	intToStr

$C$DW$26	.dwtag  DW_TAG_subprogram
	.dwattr $C$DW$26, DW_AT_name("intToStr")
	.dwattr $C$DW$26, DW_AT_low_pc(intToStr)
	.dwattr $C$DW$26, DW_AT_high_pc(0x00)
	.dwattr $C$DW$26, DW_AT_TI_symbol_name("intToStr")
	.dwattr $C$DW$26, DW_AT_external
	.dwattr $C$DW$26, DW_AT_type(*$C$DW$T$10)
	.dwattr $C$DW$26, DW_AT_TI_begin_file("../main.c")
	.dwattr $C$DW$26, DW_AT_TI_begin_line(0x1c)
	.dwattr $C$DW$26, DW_AT_TI_begin_column(0x05)
	.dwattr $C$DW$26, DW_AT_decl_file("../main.c")
	.dwattr $C$DW$26, DW_AT_decl_line(0x1c)
	.dwattr $C$DW$26, DW_AT_decl_column(0x05)
	.dwattr $C$DW$26, DW_AT_TI_max_frame_size(0x0c)
	.dwpsn	file "../main.c",line 29,column 1,is_stmt,address intToStr,isa 0

	.dwfde $C$DW$CIE, intToStr
$C$DW$27	.dwtag  DW_TAG_formal_parameter
	.dwattr $C$DW$27, DW_AT_name("x")
	.dwattr $C$DW$27, DW_AT_TI_symbol_name("x")
	.dwattr $C$DW$27, DW_AT_type(*$C$DW$T$10)
	.dwattr $C$DW$27, DW_AT_location[DW_OP_reg12]

$C$DW$28	.dwtag  DW_TAG_formal_parameter
	.dwattr $C$DW$28, DW_AT_name("str")
	.dwattr $C$DW$28, DW_AT_TI_symbol_name("str")
	.dwattr $C$DW$28, DW_AT_type(*$C$DW$T$28)
	.dwattr $C$DW$28, DW_AT_location[DW_OP_reg13]

$C$DW$29	.dwtag  DW_TAG_formal_parameter
	.dwattr $C$DW$29, DW_AT_name("d")
	.dwattr $C$DW$29, DW_AT_TI_symbol_name("d")
	.dwattr $C$DW$29, DW_AT_type(*$C$DW$T$10)
	.dwattr $C$DW$29, DW_AT_location[DW_OP_reg14]


;*****************************************************************************
;* FUNCTION NAME: intToStr                                                   *
;*                                                                           *
;*   Regs Modified     : SP,SR,r6,r7,r8,r9,r10,r11,r12,r13,r14,r15           *
;*   Regs Used         : SP,SR,r6,r7,r8,r9,r10,r11,r12,r13,r14,r15           *
;*   Local Frame Size  : 0 Args + 0 Auto + 10 Save = 10 byte                 *
;*****************************************************************************
intToStr:
;* --------------------------------------------------------------------------*
	.dwcfi	cfa_offset, 2
	.dwcfi	save_reg_to_mem, 16, -2
        PUSH.W    r10                   ; [] 
	.dwcfi	cfa_offset, 4
	.dwcfi	save_reg_to_mem, 10, -4
        PUSH.W    r9                    ; [] 
	.dwcfi	cfa_offset, 6
	.dwcfi	save_reg_to_mem, 9, -6
        PUSH.W    r8                    ; [] 
	.dwcfi	cfa_offset, 8
	.dwcfi	save_reg_to_mem, 8, -8
        PUSH.W    r7                    ; [] 
	.dwcfi	cfa_offset, 10
	.dwcfi	save_reg_to_mem, 7, -10
        PUSH.W    r6                    ; [] 
	.dwcfi	cfa_offset, 12
	.dwcfi	save_reg_to_mem, 6, -12
;* r7    assigned to x
$C$DW$30	.dwtag  DW_TAG_variable
	.dwattr $C$DW$30, DW_AT_name("x")
	.dwattr $C$DW$30, DW_AT_TI_symbol_name("x")
	.dwattr $C$DW$30, DW_AT_type(*$C$DW$T$10)
	.dwattr $C$DW$30, DW_AT_location[DW_OP_reg7]

;* r10   assigned to str
$C$DW$31	.dwtag  DW_TAG_variable
	.dwattr $C$DW$31, DW_AT_name("str")
	.dwattr $C$DW$31, DW_AT_TI_symbol_name("str")
	.dwattr $C$DW$31, DW_AT_type(*$C$DW$T$28)
	.dwattr $C$DW$31, DW_AT_location[DW_OP_reg10]

;* r8    assigned to d
$C$DW$32	.dwtag  DW_TAG_variable
	.dwattr $C$DW$32, DW_AT_name("d")
	.dwattr $C$DW$32, DW_AT_TI_symbol_name("d")
	.dwattr $C$DW$32, DW_AT_type(*$C$DW$T$10)
	.dwattr $C$DW$32, DW_AT_location[DW_OP_reg8]

;* r9    assigned to i
$C$DW$33	.dwtag  DW_TAG_variable
	.dwattr $C$DW$33, DW_AT_name("i")
	.dwattr $C$DW$33, DW_AT_TI_symbol_name("i")
	.dwattr $C$DW$33, DW_AT_type(*$C$DW$T$10)
	.dwattr $C$DW$33, DW_AT_location[DW_OP_reg9]

        MOV.W     r14,r8                ; [] |29| 
        MOV.W     r13,r10               ; [] |29| 
        MOV.W     r12,r7                ; [] |29| 
	.dwpsn	file "../main.c",line 32,column 11,is_stmt,isa 0
        MOV.W     #0,r9                 ; [] |32| 
	.dwpsn	file "../main.c",line 33,column 5,is_stmt,isa 0
        TST.W     r7                    ; [] |33| 
        JEQ       $C$L4                 ; [] |33| 
                                          ; [] |33| 
;* --------------------------------------------------------------------------*
        MOV.W     #1,r6                 ; [] |35| 
;* --------------------------------------------------------------------------*
;*   BEGIN LOOP $C$L3
;*
;*   Loop source line                : 33
;*   Loop closing brace source line  : 37
;*   Known Minimum Trip Count        : 1
;*   Known Maximum Trip Count        : 4294967295
;*   Known Max Trip Count Factor     : 1
;* --------------------------------------------------------------------------*
$C$L3:    
	.dwpsn	file "../main.c",line 35,column 9,is_stmt,isa 0
        MOV.W     #10,r13               ; [] |35| 
$C$DW$34	.dwtag  DW_TAG_TI_branch
	.dwattr $C$DW$34, DW_AT_low_pc(0x00)
	.dwattr $C$DW$34, DW_AT_name("__mspabi_remi")
	.dwattr $C$DW$34, DW_AT_TI_call

        CALL      #__mspabi_remi        ; [] |35| 
                                          ; [] |35| 
        ADD.B     #48,r14               ; [] |35| 
        MOV.W     r9,r15                ; [] |35| 
        ADD.W     r6,r9                 ; [] |35| 
        ADD.W     r10,r15               ; [] |35| 
        MOV.B     r14,0(r15)            ; [] |35| 
	.dwpsn	file "../main.c",line 36,column 9,is_stmt,isa 0
        MOV.W     r7,r12                ; [] |36| 
        MOV.W     #10,r13               ; [] |36| 
$C$DW$35	.dwtag  DW_TAG_TI_branch
	.dwattr $C$DW$35, DW_AT_low_pc(0x00)
	.dwattr $C$DW$35, DW_AT_name("__mspabi_divi")
	.dwattr $C$DW$35, DW_AT_TI_call

        CALL      #__mspabi_divi        ; [] |36| 
                                          ; [] |36| 
        MOV.W     r12,r7                ; [] |36| 
        TST.W     r7                    ; [] |36| 
        JNE       $C$L3                 ; [] |36| 
                                          ; [] |36| 
;* --------------------------------------------------------------------------*
$C$L4:    
	.dwpsn	file "../main.c",line 41,column 12,is_stmt,isa 0
        CMP.W     r8,r9                 ; [] |41| 
        JGE       $C$L6                 ; [] |41| 
                                          ; [] |41| 
;* --------------------------------------------------------------------------*
        MOV.W     #1,r14                ; [] |42| 
;* --------------------------------------------------------------------------*
;*   BEGIN LOOP $C$L5
;*
;*   Loop source line                : 41
;*   Loop closing brace source line  : 42
;*   Known Minimum Trip Count        : 1
;*   Known Maximum Trip Count        : 4294967295
;*   Known Max Trip Count Factor     : 1
;* --------------------------------------------------------------------------*
$C$L5:    
	.dwpsn	file "../main.c",line 42,column 9,is_stmt,isa 0
        MOV.W     r9,r15                ; [] |42| 
        ADD.W     r14,r9                ; [] |42| 
        ADD.W     r10,r15               ; [] |42| 
        MOV.B     #48,0(r15)            ; [] |42| 
	.dwpsn	file "../main.c",line 41,column 12,is_stmt,isa 0
        CMP.W     r8,r9                 ; [] |41| 
        JL        $C$L5                 ; [] |41| 
                                          ; [] |41| 
;* --------------------------------------------------------------------------*
$C$L6:    
	.dwpsn	file "../main.c",line 44,column 5,is_stmt,isa 0
        MOV.W     r10,r12               ; [] |44| 
        MOV.W     r9,r13                ; [] |44| 
$C$DW$36	.dwtag  DW_TAG_TI_branch
	.dwattr $C$DW$36, DW_AT_low_pc(0x00)
	.dwattr $C$DW$36, DW_AT_name("reverse")
	.dwattr $C$DW$36, DW_AT_TI_call

        CALL      #reverse              ; [] |44| 
                                          ; [] |44| 
	.dwpsn	file "../main.c",line 45,column 5,is_stmt,isa 0
        ADD.W     r9,r10                ; [] |45| 
        MOV.B     #0,0(r10)             ; [] |45| 
	.dwpsn	file "../main.c",line 46,column 5,is_stmt,isa 0
        MOV.W     r9,r12                ; [] |46| 
	.dwpsn	file "../main.c",line 47,column 1,is_stmt,isa 0
$C$DW$37	.dwtag  DW_TAG_TI_branch
	.dwattr $C$DW$37, DW_AT_low_pc(0x00)
	.dwattr $C$DW$37, DW_AT_TI_return

        BR        #__mspabi_func_epilog_5 ; [] 
        ; [] 
	.dwattr $C$DW$26, DW_AT_TI_end_file("../main.c")
	.dwattr $C$DW$26, DW_AT_TI_end_line(0x2f)
	.dwattr $C$DW$26, DW_AT_TI_end_column(0x01)
	.dwendentry
	.dwendtag $C$DW$26

	.sect	".text:ftoa"
	.clink
	.global	ftoa

$C$DW$38	.dwtag  DW_TAG_subprogram
	.dwattr $C$DW$38, DW_AT_name("ftoa")
	.dwattr $C$DW$38, DW_AT_low_pc(ftoa)
	.dwattr $C$DW$38, DW_AT_high_pc(0x00)
	.dwattr $C$DW$38, DW_AT_TI_symbol_name("ftoa")
	.dwattr $C$DW$38, DW_AT_external
	.dwattr $C$DW$38, DW_AT_TI_begin_file("../main.c")
	.dwattr $C$DW$38, DW_AT_TI_begin_line(0x31)
	.dwattr $C$DW$38, DW_AT_TI_begin_column(0x06)
	.dwattr $C$DW$38, DW_AT_decl_file("../main.c")
	.dwattr $C$DW$38, DW_AT_decl_line(0x31)
	.dwattr $C$DW$38, DW_AT_decl_column(0x06)
	.dwattr $C$DW$38, DW_AT_TI_max_frame_size(0x18)
	.dwpsn	file "../main.c",line 50,column 1,is_stmt,address ftoa,isa 0

	.dwfde $C$DW$CIE, ftoa
$C$DW$39	.dwtag  DW_TAG_formal_parameter
	.dwattr $C$DW$39, DW_AT_name("n")
	.dwattr $C$DW$39, DW_AT_TI_symbol_name("n")
	.dwattr $C$DW$39, DW_AT_type(*$C$DW$T$16)
	.dwattr $C$DW$39, DW_AT_location[DW_OP_reg12]

$C$DW$40	.dwtag  DW_TAG_formal_parameter
	.dwattr $C$DW$40, DW_AT_name("res")
	.dwattr $C$DW$40, DW_AT_TI_symbol_name("res")
	.dwattr $C$DW$40, DW_AT_type(*$C$DW$T$28)
	.dwattr $C$DW$40, DW_AT_location[DW_OP_reg14]

$C$DW$41	.dwtag  DW_TAG_formal_parameter
	.dwattr $C$DW$41, DW_AT_name("afterpoint")
	.dwattr $C$DW$41, DW_AT_TI_symbol_name("afterpoint")
	.dwattr $C$DW$41, DW_AT_type(*$C$DW$T$10)
	.dwattr $C$DW$41, DW_AT_location[DW_OP_reg15]


;*****************************************************************************
;* FUNCTION NAME: ftoa                                                       *
;*                                                                           *
;*   Regs Modified     : SP,SR,r4,r5,r6,r7,r8,r9,r10,r11,r12,r13,r14,r15     *
;*   Regs Used         : SP,SR,r4,r5,r6,r7,r8,r9,r10,r11,r12,r13,r14,r15     *
;*   Local Frame Size  : 8 Args + 0 Auto + 14 Save = 22 byte                 *
;*****************************************************************************
ftoa:
;* --------------------------------------------------------------------------*
	.dwcfi	cfa_offset, 2
	.dwcfi	save_reg_to_mem, 16, -2
        PUSH.W    r10                   ; [] 
	.dwcfi	cfa_offset, 4
	.dwcfi	save_reg_to_mem, 10, -4
        PUSH.W    r9                    ; [] 
	.dwcfi	cfa_offset, 6
	.dwcfi	save_reg_to_mem, 9, -6
        PUSH.W    r8                    ; [] 
	.dwcfi	cfa_offset, 8
	.dwcfi	save_reg_to_mem, 8, -8
        PUSH.W    r7                    ; [] 
	.dwcfi	cfa_offset, 10
	.dwcfi	save_reg_to_mem, 7, -10
        PUSH.W    r6                    ; [] 
	.dwcfi	cfa_offset, 12
	.dwcfi	save_reg_to_mem, 6, -12
        PUSH.W    r5                    ; [] 
	.dwcfi	cfa_offset, 14
	.dwcfi	save_reg_to_mem, 5, -14
        PUSH.W    r4                    ; [] 
	.dwcfi	cfa_offset, 16
	.dwcfi	save_reg_to_mem, 4, -16
        SUB.W     #8,SP                 ; [] 
	.dwcfi	cfa_offset, 24
;* r9    assigned to n
$C$DW$42	.dwtag  DW_TAG_variable
	.dwattr $C$DW$42, DW_AT_name("n")
	.dwattr $C$DW$42, DW_AT_TI_symbol_name("n")
	.dwattr $C$DW$42, DW_AT_type(*$C$DW$T$16)
	.dwattr $C$DW$42, DW_AT_location[DW_OP_reg9]

;* r7    assigned to res
$C$DW$43	.dwtag  DW_TAG_variable
	.dwattr $C$DW$43, DW_AT_name("res")
	.dwattr $C$DW$43, DW_AT_TI_symbol_name("res")
	.dwattr $C$DW$43, DW_AT_type(*$C$DW$T$28)
	.dwattr $C$DW$43, DW_AT_location[DW_OP_reg7]

;* r6    assigned to afterpoint
$C$DW$44	.dwtag  DW_TAG_variable
	.dwattr $C$DW$44, DW_AT_name("afterpoint")
	.dwattr $C$DW$44, DW_AT_TI_symbol_name("afterpoint")
	.dwattr $C$DW$44, DW_AT_type(*$C$DW$T$10)
	.dwattr $C$DW$44, DW_AT_location[DW_OP_reg6]

;* r8    assigned to ipart
$C$DW$45	.dwtag  DW_TAG_variable
	.dwattr $C$DW$45, DW_AT_name("ipart")
	.dwattr $C$DW$45, DW_AT_TI_symbol_name("ipart")
	.dwattr $C$DW$45, DW_AT_type(*$C$DW$T$10)
	.dwattr $C$DW$45, DW_AT_location[DW_OP_reg8]

;* r9    assigned to fpart
$C$DW$46	.dwtag  DW_TAG_variable
	.dwattr $C$DW$46, DW_AT_name("fpart")
	.dwattr $C$DW$46, DW_AT_TI_symbol_name("fpart")
	.dwattr $C$DW$46, DW_AT_type(*$C$DW$T$16)
	.dwattr $C$DW$46, DW_AT_location[DW_OP_reg9]

;* r5    assigned to i
$C$DW$47	.dwtag  DW_TAG_variable
	.dwattr $C$DW$47, DW_AT_name("i")
	.dwattr $C$DW$47, DW_AT_TI_symbol_name("i")
	.dwattr $C$DW$47, DW_AT_type(*$C$DW$T$10)
	.dwattr $C$DW$47, DW_AT_location[DW_OP_reg5]

        MOV.W     r15,r6                ; [] |50| 
        MOV.W     r14,r7                ; [] |50| 
        MOV.W     r12,r9                ; [] |50| 
        MOV.W     r13,r10               ; [] |50| 
	.dwpsn	file "../main.c",line 54,column 15,is_stmt,isa 0
$C$DW$48	.dwtag  DW_TAG_TI_branch
	.dwattr $C$DW$48, DW_AT_low_pc(0x00)
	.dwattr $C$DW$48, DW_AT_name("__mspabi_fixfi")
	.dwattr $C$DW$48, DW_AT_TI_call

        CALL      #__mspabi_fixfi       ; [] |54| 
                                          ; [] |54| 
        MOV.W     r12,r8                ; [] |54| 
	.dwpsn	file "../main.c",line 57,column 17,is_stmt,isa 0
$C$DW$49	.dwtag  DW_TAG_TI_branch
	.dwattr $C$DW$49, DW_AT_low_pc(0x00)
	.dwattr $C$DW$49, DW_AT_name("__mspabi_fltif")
	.dwattr $C$DW$49, DW_AT_TI_call

        CALL      #__mspabi_fltif       ; [] |57| 
                                          ; [] |57| 
        MOV.W     r12,r14               ; [] |57| 
        MOV.W     r13,r15               ; [] |57| 
        MOV.W     r9,r12                ; [] |57| 
        MOV.W     r10,r13               ; [] |57| 
$C$DW$50	.dwtag  DW_TAG_TI_branch
	.dwattr $C$DW$50, DW_AT_low_pc(0x00)
	.dwattr $C$DW$50, DW_AT_name("__mspabi_subf")
	.dwattr $C$DW$50, DW_AT_TI_call

        CALL      #__mspabi_subf        ; [] |57| 
                                          ; [] |57| 
        MOV.W     r12,r9                ; [] |57| 
        MOV.W     r13,r10               ; [] |57| 
	.dwpsn	file "../main.c",line 60,column 11,is_stmt,isa 0
        MOV.W     r8,r12                ; [] |60| 
        MOV.W     r7,r13                ; [] |60| 
        MOV.W     #0,r14                ; [] |60| 
$C$DW$51	.dwtag  DW_TAG_TI_branch
	.dwattr $C$DW$51, DW_AT_low_pc(0x00)
	.dwattr $C$DW$51, DW_AT_name("intToStr")
	.dwattr $C$DW$51, DW_AT_TI_call

        CALL      #intToStr             ; [] |60| 
                                          ; [] |60| 
        MOV.W     r12,r5                ; [] |60| 
	.dwpsn	file "../main.c",line 63,column 5,is_stmt,isa 0
        TST.W     r6                    ; [] |63| 
        JEQ       $C$L7                 ; [] |63| 
                                          ; [] |63| 
;* --------------------------------------------------------------------------*
	.dwpsn	file "../main.c",line 65,column 9,is_stmt,isa 0
        MOV.W     r7,r15                ; [] |65| 
        ADD.W     r5,r15                ; [] |65| 
        MOV.B     #46,0(r15)            ; [] |65| 
	.dwpsn	file "../main.c",line 70,column 9,is_stmt,isa 0
        MOV.W     r9,r12                ; [] |70| 
        MOV.W     r10,r13               ; [] |70| 
$C$DW$52	.dwtag  DW_TAG_TI_branch
	.dwattr $C$DW$52, DW_AT_low_pc(0x00)
	.dwattr $C$DW$52, DW_AT_name("__mspabi_cvtfd")
	.dwattr $C$DW$52, DW_AT_TI_call

        CALL      #__mspabi_cvtfd       ; [] |70| 
                                          ; [] |70| 
        MOV.W     r12,r8                ; [] |70| 
        MOV.W     r13,r9                ; [] |70| 
        MOV.W     r14,r10               ; [] |70| 
        MOV.W     r15,r4                ; [] |70| 
        MOV.W     r6,r12                ; [] |70| 
$C$DW$53	.dwtag  DW_TAG_TI_branch
	.dwattr $C$DW$53, DW_AT_low_pc(0x00)
	.dwattr $C$DW$53, DW_AT_name("__mspabi_fltid")
	.dwattr $C$DW$53, DW_AT_TI_call

        CALL      #__mspabi_fltid       ; [] |70| 
                                          ; [] |70| 
        MOV.W     r12,0(SP)             ; [] |70| 
        MOV.W     r13,2(SP)             ; [] |70| 
        MOV.W     r14,4(SP)             ; [] |70| 
        MOV.W     r15,6(SP)             ; [] |70| 
        MOV.W     #0,r12                ; [] |70| 
        MOV.W     #0,r13                ; [] |70| 
        MOV.W     #0,r14                ; [] |70| 
        MOV.W     #16420,r15            ; [] |70| 
$C$DW$54	.dwtag  DW_TAG_TI_branch
	.dwattr $C$DW$54, DW_AT_low_pc(0x00)
	.dwattr $C$DW$54, DW_AT_name("pow")
	.dwattr $C$DW$54, DW_AT_TI_call

        CALL      #pow                  ; [] |70| 
                                          ; [] |70| 
        MOV.W     r4,r11                ; [] |70| 
$C$DW$55	.dwtag  DW_TAG_TI_branch
	.dwattr $C$DW$55, DW_AT_low_pc(0x00)
	.dwattr $C$DW$55, DW_AT_name("__mspabi_mpyd")
	.dwattr $C$DW$55, DW_AT_TI_call

        CALL      #__mspabi_mpyd        ; [] |70| 
                                          ; [] |70| 
$C$DW$56	.dwtag  DW_TAG_TI_branch
	.dwattr $C$DW$56, DW_AT_low_pc(0x00)
	.dwattr $C$DW$56, DW_AT_name("__mspabi_cvtdf")
	.dwattr $C$DW$56, DW_AT_TI_call

        CALL      #__mspabi_cvtdf       ; [] |70| 
                                          ; [] |70| 
        MOV.W     r12,r9                ; [] |70| 
        MOV.W     r13,r10               ; [] |70| 
	.dwpsn	file "../main.c",line 72,column 9,is_stmt,isa 0
$C$DW$57	.dwtag  DW_TAG_TI_branch
	.dwattr $C$DW$57, DW_AT_low_pc(0x00)
	.dwattr $C$DW$57, DW_AT_name("__mspabi_fixfi")
	.dwattr $C$DW$57, DW_AT_TI_call

        CALL      #__mspabi_fixfi       ; [] |72| 
                                          ; [] |72| 
        MOV.W     r7,r13                ; [] |72| 
        ADD.W     r5,r13                ; [] |72| 
        ADD.W     #1,r13                ; [] |72| 
        MOV.W     r6,r14                ; [] |72| 
$C$DW$58	.dwtag  DW_TAG_TI_branch
	.dwattr $C$DW$58, DW_AT_low_pc(0x00)
	.dwattr $C$DW$58, DW_AT_name("intToStr")
	.dwattr $C$DW$58, DW_AT_TI_call

        CALL      #intToStr             ; [] |72| 
                                          ; [] |72| 
;* --------------------------------------------------------------------------*
$C$L7:    
	.dwpsn	file "../main.c",line 74,column 1,is_stmt,isa 0
        ADD.W     #8,SP                 ; [] 
	.dwcfi	cfa_offset, 16
$C$DW$59	.dwtag  DW_TAG_TI_branch
	.dwattr $C$DW$59, DW_AT_low_pc(0x00)
	.dwattr $C$DW$59, DW_AT_TI_return

        BR        #__mspabi_func_epilog_7 ; [] 
        ; [] 
	.dwattr $C$DW$38, DW_AT_TI_end_file("../main.c")
	.dwattr $C$DW$38, DW_AT_TI_end_line(0x4a)
	.dwattr $C$DW$38, DW_AT_TI_end_column(0x01)
	.dwendentry
	.dwendtag $C$DW$38

	.sect	".text:main"
	.clink
	.global	main

$C$DW$60	.dwtag  DW_TAG_subprogram
	.dwattr $C$DW$60, DW_AT_name("main")
	.dwattr $C$DW$60, DW_AT_low_pc(main)
	.dwattr $C$DW$60, DW_AT_high_pc(0x00)
	.dwattr $C$DW$60, DW_AT_TI_symbol_name("main")
	.dwattr $C$DW$60, DW_AT_external
	.dwattr $C$DW$60, DW_AT_type(*$C$DW$T$10)
	.dwattr $C$DW$60, DW_AT_TI_begin_file("../main.c")
	.dwattr $C$DW$60, DW_AT_TI_begin_line(0x60)
	.dwattr $C$DW$60, DW_AT_TI_begin_column(0x05)
	.dwattr $C$DW$60, DW_AT_decl_file("../main.c")
	.dwattr $C$DW$60, DW_AT_decl_line(0x60)
	.dwattr $C$DW$60, DW_AT_decl_column(0x05)
	.dwattr $C$DW$60, DW_AT_TI_max_frame_size(0x14)
	.dwpsn	file "../main.c",line 97,column 1,is_stmt,address main,isa 0

	.dwfde $C$DW$CIE, main

;*****************************************************************************
;* FUNCTION NAME: main                                                       *
;*                                                                           *
;*   Regs Modified     : SP,SR,r6,r7,r8,r9,r10,r11,r12,r13,r14,r15           *
;*   Regs Used         : SP,SR,r6,r7,r8,r9,r10,r11,r12,r13,r14,r15           *
;*   Local Frame Size  : 0 Args + 8 Auto + 10 Save = 18 byte                 *
;*****************************************************************************
main:
;* --------------------------------------------------------------------------*
	.dwcfi	cfa_offset, 2
	.dwcfi	save_reg_to_mem, 16, -2
        PUSH.W    r10                   ; [] 
	.dwcfi	cfa_offset, 4
	.dwcfi	save_reg_to_mem, 10, -4
        PUSH.W    r9                    ; [] 
	.dwcfi	cfa_offset, 6
	.dwcfi	save_reg_to_mem, 9, -6
        PUSH.W    r8                    ; [] 
	.dwcfi	cfa_offset, 8
	.dwcfi	save_reg_to_mem, 8, -8
        PUSH.W    r7                    ; [] 
	.dwcfi	cfa_offset, 10
	.dwcfi	save_reg_to_mem, 7, -10
        PUSH.W    r6                    ; [] 
	.dwcfi	cfa_offset, 12
	.dwcfi	save_reg_to_mem, 6, -12
        SUB.W     #8,SP                 ; [] 
	.dwcfi	cfa_offset, 20
$C$DW$61	.dwtag  DW_TAG_variable
	.dwattr $C$DW$61, DW_AT_name("units")
	.dwattr $C$DW$61, DW_AT_TI_symbol_name("units")
	.dwattr $C$DW$61, DW_AT_type(*$C$DW$T$165)
	.dwattr $C$DW$61, DW_AT_location[DW_OP_breg1 0]

$C$DW$62	.dwtag  DW_TAG_variable
	.dwattr $C$DW$62, DW_AT_name("result")
	.dwattr $C$DW$62, DW_AT_TI_symbol_name("result")
	.dwattr $C$DW$62, DW_AT_type(*$C$DW$T$166)
	.dwattr $C$DW$62, DW_AT_location[DW_OP_breg1 4]

;* r6    assigned to longUS
$C$DW$63	.dwtag  DW_TAG_variable
	.dwattr $C$DW$63, DW_AT_name("longUS")
	.dwattr $C$DW$63, DW_AT_TI_symbol_name("longUS")
	.dwattr $C$DW$63, DW_AT_type(*$C$DW$T$128)
	.dwattr $C$DW$63, DW_AT_location[DW_OP_reg6]

;* r15   assigned to j
$C$DW$64	.dwtag  DW_TAG_variable
	.dwattr $C$DW$64, DW_AT_name("j")
	.dwattr $C$DW$64, DW_AT_TI_symbol_name("j")
	.dwattr $C$DW$64, DW_AT_type(*$C$DW$T$10)
	.dwattr $C$DW$64, DW_AT_location[DW_OP_reg15]

;* r14   assigned to i
$C$DW$65	.dwtag  DW_TAG_variable
	.dwattr $C$DW$65, DW_AT_name("i")
	.dwattr $C$DW$65, DW_AT_TI_symbol_name("i")
	.dwattr $C$DW$65, DW_AT_type(*$C$DW$T$11)
	.dwattr $C$DW$65, DW_AT_location[DW_OP_reg14]

	.dwpsn	file "../main.c",line 98,column 2,is_stmt,isa 0
        MOV.W     #23168,&WDTCTL+0      ; [] |98| 
	.dwpsn	file "../main.c",line 99,column 2,is_stmt,isa 0
        MOV.B     &CALBC1_1MHZ+0,&BCSCTL1+0 ; [] |99| 
	.dwpsn	file "../main.c",line 100,column 2,is_stmt,isa 0
        MOV.B     &CALDCO_1MHZ+0,&DCOCTL+0 ; [] |100| 
	.dwpsn	file "../main.c",line 103,column 13,is_stmt,isa 0
        MOV.W     &$P$T0$1+0,0(SP)      ; [] |103| 
        MOV.W     &$P$T0$1+2,2(SP)      ; [] |103| 
	.dwpsn	file "../main.c",line 104,column 16,is_stmt,isa 0
        MOV.W     SP,r12                ; [] |104| 
        ADD.W     #4,r12                ; [] |104| 
        MOV.W     #0,r13                ; [] |104| 
        MOV.W     #3,r14                ; [] |104| 
$C$DW$66	.dwtag  DW_TAG_TI_branch
	.dwattr $C$DW$66, DW_AT_low_pc(0x00)
	.dwattr $C$DW$66, DW_AT_name("memset")
	.dwattr $C$DW$66, DW_AT_TI_call

        CALL      #memset               ; [] |104| 
                                          ; [] |104| 
	.dwpsn	file "../main.c",line 107,column 2,is_stmt,isa 0
        OR.B      #16,&P1DIR+0          ; [] |107| 
	.dwpsn	file "../main.c",line 108,column 2,is_stmt,isa 0
        AND.B     #239,&P1SEL+0         ; [] |108| 
	.dwpsn	file "../main.c",line 109,column 2,is_stmt,isa 0
        AND.B     #239,&P1SEL2+0        ; [] |109| 
        JMP       $C$L13                ; [] 
                                          ; [] 
;* --------------------------------------------------------------------------*
$C$L8:    
	.dwpsn	file "../main.c",line 135,column 9,is_stmt,isa 0
        MOV.W     r6,r12                ; [] |135| 
        MOV.W     r7,r13                ; [] |135| 
$C$DW$67	.dwtag  DW_TAG_TI_branch
	.dwattr $C$DW$67, DW_AT_low_pc(0x00)
	.dwattr $C$DW$67, DW_AT_name("__mspabi_fltuld")
	.dwattr $C$DW$67, DW_AT_TI_call

        CALL      #__mspabi_fltuld      ; [] |135| 
                                          ; [] |135| 
        MOV.W     r12,r8                ; [] |135| 
        MOV.W     r13,r9                ; [] |135| 
        MOV.W     r14,r10               ; [] |135| 
        MOV.W     r15,r11               ; [] |135| 
        MOV.W     #0,r12                ; [] |135| 
        MOV.W     #0,r13                ; [] |135| 
        MOV.W     #0,r14                ; [] |135| 
        MOV.W     #16461,r15            ; [] |135| 
$C$DW$68	.dwtag  DW_TAG_TI_branch
	.dwattr $C$DW$68, DW_AT_low_pc(0x00)
	.dwattr $C$DW$68, DW_AT_name("__mspabi_divd")
	.dwattr $C$DW$68, DW_AT_TI_call

        CALL      #__mspabi_divd        ; [] |135| 
                                          ; [] |135| 
$C$DW$69	.dwtag  DW_TAG_TI_branch
	.dwattr $C$DW$69, DW_AT_low_pc(0x00)
	.dwattr $C$DW$69, DW_AT_name("__mspabi_cvtdf")
	.dwattr $C$DW$69, DW_AT_TI_call

        CALL      #__mspabi_cvtdf       ; [] |135| 
                                          ; [] |135| 
	.dwpsn	file "../main.c",line 136,column 9,is_stmt,isa 0
        MOV.W     SP,r14                ; [] |136| 
        ADD.W     #4,r14                ; [] |136| 
        MOV.W     #0,r15                ; [] |136| 
$C$DW$70	.dwtag  DW_TAG_TI_branch
	.dwattr $C$DW$70, DW_AT_low_pc(0x00)
	.dwattr $C$DW$70, DW_AT_name("ftoa")
	.dwattr $C$DW$70, DW_AT_TI_call

        CALL      #ftoa                 ; [] |136| 
                                          ; [] |136| 
	.dwpsn	file "../main.c",line 143,column 21,is_stmt,isa 0
        MOV.W     #0,r14                ; [] |143| 
        CMP.W     #8,r14                ; [] |143| 
        JHS       $C$L13                ; [] |143| 
                                          ; [] |143| 
;* --------------------------------------------------------------------------*
;*   BEGIN LOOP $C$L9
;*
;*   Loop source line                : 144
;*   Loop closing brace source line  : 159
;*   Known Minimum Trip Count        : 1
;*   Known Maximum Trip Count        : 4294967295
;*   Known Max Trip Count Factor     : 1
;* --------------------------------------------------------------------------*
$C$L9:    
	.dwpsn	file "../main.c",line 145,column 17,is_stmt,isa 0
        BIT.B     #2,&IFG2+0            ; [] |145| 
        JEQ       $C$L9                 ; [] |145| 
                                          ; [] |145| 
;* --------------------------------------------------------------------------*
	.dwpsn	file "../main.c",line 146,column 21,is_stmt,isa 0
        TST.W     r14                   ; [] |146| 
        JEQ       $C$L11                ; [] |146| 
                                          ; [] |146| 
;* --------------------------------------------------------------------------*
	.dwpsn	file "../main.c",line 150,column 26,is_stmt,isa 0
        CMP.W     #4,r14                ; [] |150| 
        JLO       $C$L10                ; [] |150| 
                                          ; [] |150| 
;* --------------------------------------------------------------------------*
	.dwpsn	file "../main.c",line 155,column 25,is_stmt,isa 0
        MOV.W     SP,r15                ; [] |155| 
        ADD.W     r14,r15               ; [] |155| 
        MOV.B     -4(r15),&UCA0TXBUF+0  ; [] |155| 
	.dwpsn	file "../main.c",line 156,column 25,is_stmt,isa 0
        JMP       $C$L12                ; [] |156| 
                                          ; [] |156| 
;* --------------------------------------------------------------------------*
$C$L10:    
	.dwpsn	file "../main.c",line 151,column 25,is_stmt,isa 0
        MOV.W     SP,r15                ; [] |151| 
        ADD.W     #4,r15                ; [] |151| 
        ADD.W     r14,r15               ; [] |151| 
        MOV.B     -1(r15),&UCA0TXBUF+0  ; [] |151| 
	.dwpsn	file "../main.c",line 152,column 25,is_stmt,isa 0
        JMP       $C$L12                ; [] |152| 
                                          ; [] |152| 
;* --------------------------------------------------------------------------*
$C$L11:    
	.dwpsn	file "../main.c",line 147,column 25,is_stmt,isa 0
        MOV.B     #17,&UCA0TXBUF+0      ; [] |147| 
;* --------------------------------------------------------------------------*
$C$L12:    
	.dwpsn	file "../main.c",line 143,column 28,is_stmt,isa 0
        ADD.W     #1,r14                ; [] |143| 
        CMP.W     #8,r14                ; [] |143| 
        JLO       $C$L9                 ; [] |143| 
                                          ; [] |143| 
;* --------------------------------------------------------------------------*
;*   BEGIN LOOP $C$L13
;* --------------------------------------------------------------------------*
$C$L13:    
	.dwpsn	file "../main.c",line 114,column 24,is_stmt,isa 0
        MOV.W     #1000,r15             ; [] |114| 
        TST.W     r15                   ; [] |114| 
        JL        $C$L17                ; [] |114| 
                                          ; [] |114| 
;* --------------------------------------------------------------------------*
;*   BEGIN LOOP $C$L14
;*
;*   Loop source line                : 114
;*   Loop closing brace source line  : 123
;*   Known Minimum Trip Count        : 1
;*   Known Maximum Trip Count        : 4294967295
;*   Known Max Trip Count Factor     : 1
;* --------------------------------------------------------------------------*
$C$L14:    
	.dwpsn	file "../main.c",line 116,column 13,is_stmt,isa 0
        CMP.W     #5,r15                ; [] |116| 
        JEQ       $C$L15                ; [] |116| 
                                          ; [] |116| 
;* --------------------------------------------------------------------------*
	.dwpsn	file "../main.c",line 120,column 18,is_stmt,isa 0
        TST.W     r15                   ; [] |120| 
        JNE       $C$L16                ; [] |120| 
                                          ; [] |120| 
;* --------------------------------------------------------------------------*
	.dwpsn	file "../main.c",line 121,column 17,is_stmt,isa 0
        AND.B     #239,&P1OUT+0         ; [] |121| 
        JMP       $C$L16                ; [] |121| 
                                          ; [] |121| 
;* --------------------------------------------------------------------------*
$C$L15:    
	.dwpsn	file "../main.c",line 118,column 17,is_stmt,isa 0
        OR.B      #16,&P1OUT+0          ; [] |118| 
;* --------------------------------------------------------------------------*
$C$L16:    
	.dwpsn	file "../main.c",line 114,column 32,is_stmt,isa 0
        SUB.W     #1,r15                ; [] |114| 
        TST.W     r15                   ; [] |114| 
        JGE       $C$L14                ; [] |114| 
                                          ; [] |114| 
;* --------------------------------------------------------------------------*
$C$L17:    
	.dwpsn	file "../main.c",line 126,column 9,is_stmt,isa 0
    nop
 	 nop
;* --------------------------------------------------------------------------*
;*   BEGIN LOOP $C$L18
;*
;*   Loop source line                : 130
;*   Loop closing brace source line  : 132
;*   Known Minimum Trip Count        : 1
;*   Known Maximum Trip Count        : 4294967295
;*   Known Max Trip Count Factor     : 1
;* --------------------------------------------------------------------------*
$C$L18:    
	.dwpsn	file "../main.c",line 130,column 9,is_stmt,isa 0
        BIT.B     #8,&P1IN+0            ; [] |130| 
        JEQ       $C$L8                 ; [] |130| 
                                          ; [] |130| 
;* --------------------------------------------------------------------------*
	.dwpsn	file "../main.c",line 131,column 13,is_stmt,isa 0
        ADD.W     #1,r6                 ; [] |131| 
        ADDC.W    #0,r7                 ; [] |131| 
        JMP       $C$L18                ; [] |131| 
                                          ; [] |131| 
;* --------------------------------------------------------------------------*
	.dwattr $C$DW$60, DW_AT_TI_end_file("../main.c")
	.dwattr $C$DW$60, DW_AT_TI_end_line(0xa4)
	.dwattr $C$DW$60, DW_AT_TI_end_column(0x01)
	.dwendentry
	.dwendtag $C$DW$60

	.sect	".text:init_UART"
	.clink
	.global	init_UART

$C$DW$71	.dwtag  DW_TAG_subprogram
	.dwattr $C$DW$71, DW_AT_name("init_UART")
	.dwattr $C$DW$71, DW_AT_low_pc(init_UART)
	.dwattr $C$DW$71, DW_AT_high_pc(0x00)
	.dwattr $C$DW$71, DW_AT_TI_symbol_name("init_UART")
	.dwattr $C$DW$71, DW_AT_external
	.dwattr $C$DW$71, DW_AT_TI_begin_file("../main.c")
	.dwattr $C$DW$71, DW_AT_TI_begin_line(0x4c)
	.dwattr $C$DW$71, DW_AT_TI_begin_column(0x06)
	.dwattr $C$DW$71, DW_AT_decl_file("../main.c")
	.dwattr $C$DW$71, DW_AT_decl_line(0x4c)
	.dwattr $C$DW$71, DW_AT_decl_column(0x06)
	.dwattr $C$DW$71, DW_AT_TI_max_frame_size(0x02)
	.dwpsn	file "../main.c",line 76,column 18,is_stmt,address init_UART,isa 0

	.dwfde $C$DW$CIE, init_UART

;*****************************************************************************
;* FUNCTION NAME: init_UART                                                  *
;*                                                                           *
;*   Regs Modified     : SP                                                  *
;*   Regs Used         : SP                                                  *
;*   Local Frame Size  : 0 Args + 0 Auto + 0 Save = 0 byte                   *
;*****************************************************************************
init_UART:
;* --------------------------------------------------------------------------*
	.dwcfi	cfa_offset, 2
	.dwcfi	save_reg_to_mem, 16, -2
	.dwpsn	file "../main.c",line 78,column 5,is_stmt,isa 0
    mov.b    #00000110b, &P1SEL
	.dwpsn	file "../main.c",line 79,column 5,is_stmt,isa 0
    mov.b    #00000110b, &P1SEL2
	.dwpsn	file "../main.c",line 82,column 5,is_stmt,isa 0
    bis.b   #1, &0x61
	.dwpsn	file "../main.c",line 84,column 5,is_stmt,isa 0
    mov.b   #0x80, &0x61
	.dwpsn	file "../main.c",line 85,column 5,is_stmt,isa 0
    mov.b   #104, &0x62
	.dwpsn	file "../main.c",line 86,column 5,is_stmt,isa 0
    mov.b   #0,   &0x63
	.dwpsn	file "../main.c",line 87,column 5,is_stmt,isa 0
    mov.b   #2, &0x64
	.dwpsn	file "../main.c",line 89,column 5,is_stmt,isa 0
    bic.b   #1, &0x61
	.dwpsn	file "../main.c",line 90,column 1,is_stmt,isa 0
$C$DW$72	.dwtag  DW_TAG_TI_branch
	.dwattr $C$DW$72, DW_AT_low_pc(0x00)
	.dwattr $C$DW$72, DW_AT_TI_return

        RET       ; [] 
        ; [] 
	.dwattr $C$DW$71, DW_AT_TI_end_file("../main.c")
	.dwattr $C$DW$71, DW_AT_TI_end_line(0x5a)
	.dwattr $C$DW$71, DW_AT_TI_end_column(0x01)
	.dwendentry
	.dwendtag $C$DW$71

	.sect	".text:__signbitl"
	.clink
	.global	__signbitl

$C$DW$73	.dwtag  DW_TAG_subprogram
	.dwattr $C$DW$73, DW_AT_name("__signbitl")
	.dwattr $C$DW$73, DW_AT_low_pc(__signbitl)
	.dwattr $C$DW$73, DW_AT_high_pc(0x00)
	.dwattr $C$DW$73, DW_AT_TI_symbol_name("__signbitl")
	.dwattr $C$DW$73, DW_AT_external
	.dwattr $C$DW$73, DW_AT_type(*$C$DW$T$10)
	.dwattr $C$DW$73, DW_AT_TI_begin_file("C:/ti/ccsv8/tools/compiler/ti-cgt-msp430_18.1.4.LTS/include/_defs.h")
	.dwattr $C$DW$73, DW_AT_TI_begin_line(0x12e)
	.dwattr $C$DW$73, DW_AT_TI_begin_column(0x1b)
	.dwattr $C$DW$73, DW_AT_decl_file("C:/ti/ccsv8/tools/compiler/ti-cgt-msp430_18.1.4.LTS/include/_defs.h")
	.dwattr $C$DW$73, DW_AT_decl_line(0x12e)
	.dwattr $C$DW$73, DW_AT_decl_column(0x1b)
	.dwattr $C$DW$73, DW_AT_TI_max_frame_size(0x02)
	.dwpsn	file "C:/ti/ccsv8/tools/compiler/ti-cgt-msp430_18.1.4.LTS/include/_defs.h",line 303,column 1,is_stmt,address __signbitl,isa 0

	.dwfde $C$DW$CIE, __signbitl
$C$DW$74	.dwtag  DW_TAG_formal_parameter
	.dwattr $C$DW$74, DW_AT_name("e")
	.dwattr $C$DW$74, DW_AT_TI_symbol_name("e")
	.dwattr $C$DW$74, DW_AT_type(*$C$DW$T$18)
	.dwattr $C$DW$74, DW_AT_location[DW_OP_reg12]


;*****************************************************************************
;* FUNCTION NAME: __signbitl                                                 *
;*                                                                           *
;*   Regs Modified     : SP,SR,r11,r12,r13,r14,r15                           *
;*   Regs Used         : SP,SR,r11,r12,r13,r14,r15                           *
;*   Local Frame Size  : 0 Args + 0 Auto + 0 Save = 0 byte                   *
;*****************************************************************************
__signbitl:
;* --------------------------------------------------------------------------*
	.dwcfi	cfa_offset, 2
	.dwcfi	save_reg_to_mem, 16, -2
	.dwpsn	file "C:/ti/ccsv8/tools/compiler/ti-cgt-msp430_18.1.4.LTS/include/_defs.h",line 303,column 3,is_stmt,isa 0
        MOV.W     #0,r11                ; [] |303| 
        AND.W     #0,r12                ; [] |303| 
        AND.W     #0,r13                ; [] |303| 
        AND.W     #0,r14                ; [] |303| 
        AND.W     #32768,r15            ; [] |303| 
        TST.W     r15                   ; [] |303| 
        JNE       $C$L19                ; [] |303| 
                                          ; [] |303| 
;* --------------------------------------------------------------------------*
        TST.W     r14                   ; [] |303| 
        JNE       $C$L19                ; [] |303| 
                                          ; [] |303| 
;* --------------------------------------------------------------------------*
        TST.W     r13                   ; [] |303| 
        JNE       $C$L19                ; [] |303| 
                                          ; [] |303| 
;* --------------------------------------------------------------------------*
        TST.W     r12                   ; [] |303| 
        JEQ       $C$L20                ; [] |303| 
                                          ; [] |303| 
;* --------------------------------------------------------------------------*
$C$L19:    
        MOV.W     #1,r11                ; [] |303| 
;* --------------------------------------------------------------------------*
$C$L20:    
        MOV.W     r11,r12               ; [] |303| 
	.dwpsn	file "C:/ti/ccsv8/tools/compiler/ti-cgt-msp430_18.1.4.LTS/include/_defs.h",line 303,column 43,is_stmt,isa 0
$C$DW$75	.dwtag  DW_TAG_TI_branch
	.dwattr $C$DW$75, DW_AT_low_pc(0x00)
	.dwattr $C$DW$75, DW_AT_TI_return

        RET       ; [] 
        ; [] 
	.dwattr $C$DW$73, DW_AT_TI_end_file("C:/ti/ccsv8/tools/compiler/ti-cgt-msp430_18.1.4.LTS/include/_defs.h")
	.dwattr $C$DW$73, DW_AT_TI_end_line(0x12f)
	.dwattr $C$DW$73, DW_AT_TI_end_column(0x2b)
	.dwendentry
	.dwendtag $C$DW$73

	.sect	".text:__signbitf"
	.clink
	.global	__signbitf

$C$DW$76	.dwtag  DW_TAG_subprogram
	.dwattr $C$DW$76, DW_AT_name("__signbitf")
	.dwattr $C$DW$76, DW_AT_low_pc(__signbitf)
	.dwattr $C$DW$76, DW_AT_high_pc(0x00)
	.dwattr $C$DW$76, DW_AT_TI_symbol_name("__signbitf")
	.dwattr $C$DW$76, DW_AT_external
	.dwattr $C$DW$76, DW_AT_type(*$C$DW$T$10)
	.dwattr $C$DW$76, DW_AT_TI_begin_file("C:/ti/ccsv8/tools/compiler/ti-cgt-msp430_18.1.4.LTS/include/_defs.h")
	.dwattr $C$DW$76, DW_AT_TI_begin_line(0x12c)
	.dwattr $C$DW$76, DW_AT_TI_begin_column(0x1b)
	.dwattr $C$DW$76, DW_AT_decl_file("C:/ti/ccsv8/tools/compiler/ti-cgt-msp430_18.1.4.LTS/include/_defs.h")
	.dwattr $C$DW$76, DW_AT_decl_line(0x12c)
	.dwattr $C$DW$76, DW_AT_decl_column(0x1b)
	.dwattr $C$DW$76, DW_AT_TI_max_frame_size(0x02)
	.dwpsn	file "C:/ti/ccsv8/tools/compiler/ti-cgt-msp430_18.1.4.LTS/include/_defs.h",line 301,column 1,is_stmt,address __signbitf,isa 0

	.dwfde $C$DW$CIE, __signbitf
$C$DW$77	.dwtag  DW_TAG_formal_parameter
	.dwattr $C$DW$77, DW_AT_name("f")
	.dwattr $C$DW$77, DW_AT_TI_symbol_name("f")
	.dwattr $C$DW$77, DW_AT_type(*$C$DW$T$16)
	.dwattr $C$DW$77, DW_AT_location[DW_OP_reg12]


;*****************************************************************************
;* FUNCTION NAME: __signbitf                                                 *
;*                                                                           *
;*   Regs Modified     : SP,SR,r12                                           *
;*   Regs Used         : SP,SR,r12,r13                                       *
;*   Local Frame Size  : 0 Args + 0 Auto + 0 Save = 0 byte                   *
;*****************************************************************************
__signbitf:
;* --------------------------------------------------------------------------*
	.dwcfi	cfa_offset, 2
	.dwcfi	save_reg_to_mem, 16, -2
	.dwpsn	file "C:/ti/ccsv8/tools/compiler/ti-cgt-msp430_18.1.4.LTS/include/_defs.h",line 301,column 3,is_stmt,isa 0
        MOV.W     #0,r12                ; [] |301| 
        TST.W     r13                   ; [] |301| 
        JGE       $C$L21                ; [] |301| 
                                          ; [] |301| 
;* --------------------------------------------------------------------------*
        MOV.W     #1,r12                ; [] |301| 
;* --------------------------------------------------------------------------*
$C$L21:    
	.dwpsn	file "C:/ti/ccsv8/tools/compiler/ti-cgt-msp430_18.1.4.LTS/include/_defs.h",line 301,column 41,is_stmt,isa 0
$C$DW$78	.dwtag  DW_TAG_TI_branch
	.dwattr $C$DW$78, DW_AT_low_pc(0x00)
	.dwattr $C$DW$78, DW_AT_TI_return

        RET       ; [] 
        ; [] 
	.dwattr $C$DW$76, DW_AT_TI_end_file("C:/ti/ccsv8/tools/compiler/ti-cgt-msp430_18.1.4.LTS/include/_defs.h")
	.dwattr $C$DW$76, DW_AT_TI_end_line(0x12d)
	.dwattr $C$DW$76, DW_AT_TI_end_column(0x29)
	.dwendentry
	.dwendtag $C$DW$76

	.sect	".text:__signbit"
	.clink
	.global	__signbit

$C$DW$79	.dwtag  DW_TAG_subprogram
	.dwattr $C$DW$79, DW_AT_name("__signbit")
	.dwattr $C$DW$79, DW_AT_low_pc(__signbit)
	.dwattr $C$DW$79, DW_AT_high_pc(0x00)
	.dwattr $C$DW$79, DW_AT_TI_symbol_name("__signbit")
	.dwattr $C$DW$79, DW_AT_external
	.dwattr $C$DW$79, DW_AT_type(*$C$DW$T$10)
	.dwattr $C$DW$79, DW_AT_TI_begin_file("C:/ti/ccsv8/tools/compiler/ti-cgt-msp430_18.1.4.LTS/include/_defs.h")
	.dwattr $C$DW$79, DW_AT_TI_begin_line(0x12a)
	.dwattr $C$DW$79, DW_AT_TI_begin_column(0x1b)
	.dwattr $C$DW$79, DW_AT_decl_file("C:/ti/ccsv8/tools/compiler/ti-cgt-msp430_18.1.4.LTS/include/_defs.h")
	.dwattr $C$DW$79, DW_AT_decl_line(0x12a)
	.dwattr $C$DW$79, DW_AT_decl_column(0x1b)
	.dwattr $C$DW$79, DW_AT_TI_max_frame_size(0x02)
	.dwpsn	file "C:/ti/ccsv8/tools/compiler/ti-cgt-msp430_18.1.4.LTS/include/_defs.h",line 299,column 1,is_stmt,address __signbit,isa 0

	.dwfde $C$DW$CIE, __signbit
$C$DW$80	.dwtag  DW_TAG_formal_parameter
	.dwattr $C$DW$80, DW_AT_name("d")
	.dwattr $C$DW$80, DW_AT_TI_symbol_name("d")
	.dwattr $C$DW$80, DW_AT_type(*$C$DW$T$17)
	.dwattr $C$DW$80, DW_AT_location[DW_OP_reg12]


;*****************************************************************************
;* FUNCTION NAME: __signbit                                                  *
;*                                                                           *
;*   Regs Modified     : SP,SR,r11,r12,r13,r14,r15                           *
;*   Regs Used         : SP,SR,r11,r12,r13,r14,r15                           *
;*   Local Frame Size  : 0 Args + 0 Auto + 0 Save = 0 byte                   *
;*****************************************************************************
__signbit:
;* --------------------------------------------------------------------------*
	.dwcfi	cfa_offset, 2
	.dwcfi	save_reg_to_mem, 16, -2
	.dwpsn	file "C:/ti/ccsv8/tools/compiler/ti-cgt-msp430_18.1.4.LTS/include/_defs.h",line 299,column 3,is_stmt,isa 0
        MOV.W     #0,r11                ; [] |299| 
        AND.W     #0,r12                ; [] |299| 
        AND.W     #0,r13                ; [] |299| 
        AND.W     #0,r14                ; [] |299| 
        AND.W     #32768,r15            ; [] |299| 
        TST.W     r15                   ; [] |299| 
        JNE       $C$L22                ; [] |299| 
                                          ; [] |299| 
;* --------------------------------------------------------------------------*
        TST.W     r14                   ; [] |299| 
        JNE       $C$L22                ; [] |299| 
                                          ; [] |299| 
;* --------------------------------------------------------------------------*
        TST.W     r13                   ; [] |299| 
        JNE       $C$L22                ; [] |299| 
                                          ; [] |299| 
;* --------------------------------------------------------------------------*
        TST.W     r12                   ; [] |299| 
        JEQ       $C$L23                ; [] |299| 
                                          ; [] |299| 
;* --------------------------------------------------------------------------*
$C$L22:    
        MOV.W     #1,r11                ; [] |299| 
;* --------------------------------------------------------------------------*
$C$L23:    
        MOV.W     r11,r12               ; [] |299| 
	.dwpsn	file "C:/ti/ccsv8/tools/compiler/ti-cgt-msp430_18.1.4.LTS/include/_defs.h",line 299,column 42,is_stmt,isa 0
$C$DW$81	.dwtag  DW_TAG_TI_branch
	.dwattr $C$DW$81, DW_AT_low_pc(0x00)
	.dwattr $C$DW$81, DW_AT_TI_return

        RET       ; [] 
        ; [] 
	.dwattr $C$DW$79, DW_AT_TI_end_file("C:/ti/ccsv8/tools/compiler/ti-cgt-msp430_18.1.4.LTS/include/_defs.h")
	.dwattr $C$DW$79, DW_AT_TI_end_line(0x12b)
	.dwattr $C$DW$79, DW_AT_TI_end_column(0x2a)
	.dwendentry
	.dwendtag $C$DW$79

	.sect	".text:__isnormall"
	.clink
	.global	__isnormall

$C$DW$82	.dwtag  DW_TAG_subprogram
	.dwattr $C$DW$82, DW_AT_name("__isnormall")
	.dwattr $C$DW$82, DW_AT_low_pc(__isnormall)
	.dwattr $C$DW$82, DW_AT_high_pc(0x00)
	.dwattr $C$DW$82, DW_AT_TI_symbol_name("__isnormall")
	.dwattr $C$DW$82, DW_AT_external
	.dwattr $C$DW$82, DW_AT_type(*$C$DW$T$10)
	.dwattr $C$DW$82, DW_AT_TI_begin_file("C:/ti/ccsv8/tools/compiler/ti-cgt-msp430_18.1.4.LTS/include/_defs.h")
	.dwattr $C$DW$82, DW_AT_TI_begin_line(0x126)
	.dwattr $C$DW$82, DW_AT_TI_begin_column(0x1b)
	.dwattr $C$DW$82, DW_AT_decl_file("C:/ti/ccsv8/tools/compiler/ti-cgt-msp430_18.1.4.LTS/include/_defs.h")
	.dwattr $C$DW$82, DW_AT_decl_line(0x126)
	.dwattr $C$DW$82, DW_AT_decl_column(0x1b)
	.dwattr $C$DW$82, DW_AT_TI_max_frame_size(0x0c)
	.dwpsn	file "C:/ti/ccsv8/tools/compiler/ti-cgt-msp430_18.1.4.LTS/include/_defs.h",line 295,column 1,is_stmt,address __isnormall,isa 0

	.dwfde $C$DW$CIE, __isnormall
$C$DW$83	.dwtag  DW_TAG_formal_parameter
	.dwattr $C$DW$83, DW_AT_name("e")
	.dwattr $C$DW$83, DW_AT_TI_symbol_name("e")
	.dwattr $C$DW$83, DW_AT_type(*$C$DW$T$18)
	.dwattr $C$DW$83, DW_AT_location[DW_OP_reg12]


;*****************************************************************************
;* FUNCTION NAME: __isnormall                                                *
;*                                                                           *
;*   Regs Modified     : SP,SR,r6,r7,r8,r9,r10,r11,r12,r13,r14,r15           *
;*   Regs Used         : SP,SR,r6,r7,r8,r9,r10,r11,r12,r13,r14,r15           *
;*   Local Frame Size  : 0 Args + 0 Auto + 10 Save = 10 byte                 *
;*****************************************************************************
__isnormall:
;* --------------------------------------------------------------------------*
	.dwcfi	cfa_offset, 2
	.dwcfi	save_reg_to_mem, 16, -2
        PUSH.W    r10                   ; [] 
	.dwcfi	cfa_offset, 4
	.dwcfi	save_reg_to_mem, 10, -4
        PUSH.W    r9                    ; [] 
	.dwcfi	cfa_offset, 6
	.dwcfi	save_reg_to_mem, 9, -6
        PUSH.W    r8                    ; [] 
	.dwcfi	cfa_offset, 8
	.dwcfi	save_reg_to_mem, 8, -8
        PUSH.W    r7                    ; [] 
	.dwcfi	cfa_offset, 10
	.dwcfi	save_reg_to_mem, 7, -10
        PUSH.W    r6                    ; [] 
	.dwcfi	cfa_offset, 12
	.dwcfi	save_reg_to_mem, 6, -12
;* r6    assigned to $O$S1
;* r12   assigned to e
$C$DW$84	.dwtag  DW_TAG_variable
	.dwattr $C$DW$84, DW_AT_name("e")
	.dwattr $C$DW$84, DW_AT_TI_symbol_name("e")
	.dwattr $C$DW$84, DW_AT_type(*$C$DW$T$18)
	.dwattr $C$DW$84, DW_AT_location[DW_OP_reg12 DW_OP_piece 2 DW_OP_reg13 DW_OP_piece 2 DW_OP_reg14 DW_OP_piece 2 DW_OP_reg7 DW_OP_piece 2]

        MOV.W     r15,r7                ; [] |295| 
	.dwpsn	file "C:/ti/ccsv8/tools/compiler/ti-cgt-msp430_18.1.4.LTS/include/_defs.h",line 295,column 3,is_stmt,isa 0
        MOV.W     #0,r6                 ; [] |295| 
        MOV.W     r12,r8                ; [] |295| 
        MOV.W     r13,r9                ; [] |295| 
        MOV.W     r14,r10               ; [] |295| 
        MOV.W     r7,r11                ; [] |295| 
        MOV.W     #52,r12               ; [] |295| 
$C$DW$85	.dwtag  DW_TAG_TI_branch
	.dwattr $C$DW$85, DW_AT_low_pc(0x00)
	.dwattr $C$DW$85, DW_AT_name("__mspabi_srlll")
	.dwattr $C$DW$85, DW_AT_TI_call

        CALL      #__mspabi_srlll       ; [] |295| 
                                          ; [] |295| 
        AND.W     #2047,r12             ; [] |295| 
        AND.W     #0,r13                ; [] |295| 
        AND.W     #0,r14                ; [] |295| 
        AND.W     #0,r15                ; [] |295| 
        TST.W     r15                   ; [] |295| 
        JNE       $C$L24                ; [] |295| 
                                          ; [] |295| 
;* --------------------------------------------------------------------------*
        TST.W     r14                   ; [] |295| 
        JNE       $C$L24                ; [] |295| 
                                          ; [] |295| 
;* --------------------------------------------------------------------------*
        TST.W     r13                   ; [] |295| 
        JNE       $C$L24                ; [] |295| 
                                          ; [] |295| 
;* --------------------------------------------------------------------------*
        TST.W     r12                   ; [] |295| 
        JEQ       $C$L25                ; [] |295| 
                                          ; [] |295| 
;* --------------------------------------------------------------------------*
$C$L24:    
        AND.W     #32752,r7             ; [] |295| 
        CMP.W     #32752,r7             ; [] |295| 
        JEQ       $C$L25                ; [] |295| 
                                          ; [] |295| 
;* --------------------------------------------------------------------------*
        MOV.W     #1,r6                 ; [] |295| 
;* --------------------------------------------------------------------------*
$C$L25:    
        MOV.W     r6,r12                ; [] |295| 
	.dwpsn	file "C:/ti/ccsv8/tools/compiler/ti-cgt-msp430_18.1.4.LTS/include/_defs.h",line 296,column 49,is_stmt,isa 0
$C$DW$86	.dwtag  DW_TAG_TI_branch
	.dwattr $C$DW$86, DW_AT_low_pc(0x00)
	.dwattr $C$DW$86, DW_AT_TI_return

        BR        #__mspabi_func_epilog_5 ; [] 
        ; [] 
	.dwattr $C$DW$82, DW_AT_TI_end_file("C:/ti/ccsv8/tools/compiler/ti-cgt-msp430_18.1.4.LTS/include/_defs.h")
	.dwattr $C$DW$82, DW_AT_TI_end_line(0x128)
	.dwattr $C$DW$82, DW_AT_TI_end_column(0x31)
	.dwendentry
	.dwendtag $C$DW$82

	.sect	".text:__isnormalf"
	.clink
	.global	__isnormalf

$C$DW$87	.dwtag  DW_TAG_subprogram
	.dwattr $C$DW$87, DW_AT_name("__isnormalf")
	.dwattr $C$DW$87, DW_AT_low_pc(__isnormalf)
	.dwattr $C$DW$87, DW_AT_high_pc(0x00)
	.dwattr $C$DW$87, DW_AT_TI_symbol_name("__isnormalf")
	.dwattr $C$DW$87, DW_AT_external
	.dwattr $C$DW$87, DW_AT_type(*$C$DW$T$10)
	.dwattr $C$DW$87, DW_AT_TI_begin_file("C:/ti/ccsv8/tools/compiler/ti-cgt-msp430_18.1.4.LTS/include/_defs.h")
	.dwattr $C$DW$87, DW_AT_TI_begin_line(0x122)
	.dwattr $C$DW$87, DW_AT_TI_begin_column(0x1b)
	.dwattr $C$DW$87, DW_AT_decl_file("C:/ti/ccsv8/tools/compiler/ti-cgt-msp430_18.1.4.LTS/include/_defs.h")
	.dwattr $C$DW$87, DW_AT_decl_line(0x122)
	.dwattr $C$DW$87, DW_AT_decl_column(0x1b)
	.dwattr $C$DW$87, DW_AT_TI_max_frame_size(0x02)
	.dwpsn	file "C:/ti/ccsv8/tools/compiler/ti-cgt-msp430_18.1.4.LTS/include/_defs.h",line 291,column 1,is_stmt,address __isnormalf,isa 0

	.dwfde $C$DW$CIE, __isnormalf
$C$DW$88	.dwtag  DW_TAG_formal_parameter
	.dwattr $C$DW$88, DW_AT_name("f")
	.dwattr $C$DW$88, DW_AT_TI_symbol_name("f")
	.dwattr $C$DW$88, DW_AT_type(*$C$DW$T$16)
	.dwattr $C$DW$88, DW_AT_location[DW_OP_reg12]


;*****************************************************************************
;* FUNCTION NAME: __isnormalf                                                *
;*                                                                           *
;*   Regs Modified     : SP,SR,r12,r13,r15                                   *
;*   Regs Used         : SP,SR,r12,r13,r15                                   *
;*   Local Frame Size  : 0 Args + 0 Auto + 0 Save = 0 byte                   *
;*****************************************************************************
__isnormalf:
;* --------------------------------------------------------------------------*
	.dwcfi	cfa_offset, 2
	.dwcfi	save_reg_to_mem, 16, -2
;* r15   assigned to $O$S1
	.dwpsn	file "C:/ti/ccsv8/tools/compiler/ti-cgt-msp430_18.1.4.LTS/include/_defs.h",line 291,column 3,is_stmt,isa 0
        MOV.W     #0,r15                ; [] |291| 
        MOV.W     r13,r12               ; [] |291| 
$C$DW$89	.dwtag  DW_TAG_TI_branch
	.dwattr $C$DW$89, DW_AT_low_pc(0x00)
	.dwattr $C$DW$89, DW_AT_name("__mspabi_srli_7")
	.dwattr $C$DW$89, DW_AT_TI_call

        CALL      #__mspabi_srli_7      ; [] |291| 
                                          ; [] |291| 
        BIT.W     #255,r12              ; [] |291| 
        JEQ       $C$L26                ; [] |291| 
                                          ; [] |291| 
;* --------------------------------------------------------------------------*
        AND.W     #32640,r13            ; [] |291| 
        CMP.W     #32640,r13            ; [] |291| 
        JEQ       $C$L26                ; [] |291| 
                                          ; [] |291| 
;* --------------------------------------------------------------------------*
        MOV.W     #1,r15                ; [] |291| 
;* --------------------------------------------------------------------------*
$C$L26:    
        MOV.W     r15,r12               ; [] |291| 
	.dwpsn	file "C:/ti/ccsv8/tools/compiler/ti-cgt-msp430_18.1.4.LTS/include/_defs.h",line 292,column 47,is_stmt,isa 0
$C$DW$90	.dwtag  DW_TAG_TI_branch
	.dwattr $C$DW$90, DW_AT_low_pc(0x00)
	.dwattr $C$DW$90, DW_AT_TI_return

        RET       ; [] 
        ; [] 
	.dwattr $C$DW$87, DW_AT_TI_end_file("C:/ti/ccsv8/tools/compiler/ti-cgt-msp430_18.1.4.LTS/include/_defs.h")
	.dwattr $C$DW$87, DW_AT_TI_end_line(0x124)
	.dwattr $C$DW$87, DW_AT_TI_end_column(0x2f)
	.dwendentry
	.dwendtag $C$DW$87

	.sect	".text:__isnormal"
	.clink
	.global	__isnormal

$C$DW$91	.dwtag  DW_TAG_subprogram
	.dwattr $C$DW$91, DW_AT_name("__isnormal")
	.dwattr $C$DW$91, DW_AT_low_pc(__isnormal)
	.dwattr $C$DW$91, DW_AT_high_pc(0x00)
	.dwattr $C$DW$91, DW_AT_TI_symbol_name("__isnormal")
	.dwattr $C$DW$91, DW_AT_external
	.dwattr $C$DW$91, DW_AT_type(*$C$DW$T$10)
	.dwattr $C$DW$91, DW_AT_TI_begin_file("C:/ti/ccsv8/tools/compiler/ti-cgt-msp430_18.1.4.LTS/include/_defs.h")
	.dwattr $C$DW$91, DW_AT_TI_begin_line(0x11e)
	.dwattr $C$DW$91, DW_AT_TI_begin_column(0x1b)
	.dwattr $C$DW$91, DW_AT_decl_file("C:/ti/ccsv8/tools/compiler/ti-cgt-msp430_18.1.4.LTS/include/_defs.h")
	.dwattr $C$DW$91, DW_AT_decl_line(0x11e)
	.dwattr $C$DW$91, DW_AT_decl_column(0x1b)
	.dwattr $C$DW$91, DW_AT_TI_max_frame_size(0x0c)
	.dwpsn	file "C:/ti/ccsv8/tools/compiler/ti-cgt-msp430_18.1.4.LTS/include/_defs.h",line 287,column 1,is_stmt,address __isnormal,isa 0

	.dwfde $C$DW$CIE, __isnormal
$C$DW$92	.dwtag  DW_TAG_formal_parameter
	.dwattr $C$DW$92, DW_AT_name("d")
	.dwattr $C$DW$92, DW_AT_TI_symbol_name("d")
	.dwattr $C$DW$92, DW_AT_type(*$C$DW$T$17)
	.dwattr $C$DW$92, DW_AT_location[DW_OP_reg12]


;*****************************************************************************
;* FUNCTION NAME: __isnormal                                                 *
;*                                                                           *
;*   Regs Modified     : SP,SR,r6,r7,r8,r9,r10,r11,r12,r13,r14,r15           *
;*   Regs Used         : SP,SR,r6,r7,r8,r9,r10,r11,r12,r13,r14,r15           *
;*   Local Frame Size  : 0 Args + 0 Auto + 10 Save = 10 byte                 *
;*****************************************************************************
__isnormal:
;* --------------------------------------------------------------------------*
	.dwcfi	cfa_offset, 2
	.dwcfi	save_reg_to_mem, 16, -2
        PUSH.W    r10                   ; [] 
	.dwcfi	cfa_offset, 4
	.dwcfi	save_reg_to_mem, 10, -4
        PUSH.W    r9                    ; [] 
	.dwcfi	cfa_offset, 6
	.dwcfi	save_reg_to_mem, 9, -6
        PUSH.W    r8                    ; [] 
	.dwcfi	cfa_offset, 8
	.dwcfi	save_reg_to_mem, 8, -8
        PUSH.W    r7                    ; [] 
	.dwcfi	cfa_offset, 10
	.dwcfi	save_reg_to_mem, 7, -10
        PUSH.W    r6                    ; [] 
	.dwcfi	cfa_offset, 12
	.dwcfi	save_reg_to_mem, 6, -12
;* r6    assigned to $O$S1
;* r12   assigned to d
$C$DW$93	.dwtag  DW_TAG_variable
	.dwattr $C$DW$93, DW_AT_name("d")
	.dwattr $C$DW$93, DW_AT_TI_symbol_name("d")
	.dwattr $C$DW$93, DW_AT_type(*$C$DW$T$17)
	.dwattr $C$DW$93, DW_AT_location[DW_OP_reg12 DW_OP_piece 2 DW_OP_reg13 DW_OP_piece 2 DW_OP_reg14 DW_OP_piece 2 DW_OP_reg7 DW_OP_piece 2]

        MOV.W     r15,r7                ; [] |287| 
	.dwpsn	file "C:/ti/ccsv8/tools/compiler/ti-cgt-msp430_18.1.4.LTS/include/_defs.h",line 287,column 3,is_stmt,isa 0
        MOV.W     #0,r6                 ; [] |287| 
        MOV.W     r12,r8                ; [] |287| 
        MOV.W     r13,r9                ; [] |287| 
        MOV.W     r14,r10               ; [] |287| 
        MOV.W     r7,r11                ; [] |287| 
        MOV.W     #52,r12               ; [] |287| 
$C$DW$94	.dwtag  DW_TAG_TI_branch
	.dwattr $C$DW$94, DW_AT_low_pc(0x00)
	.dwattr $C$DW$94, DW_AT_name("__mspabi_srlll")
	.dwattr $C$DW$94, DW_AT_TI_call

        CALL      #__mspabi_srlll       ; [] |287| 
                                          ; [] |287| 
        AND.W     #2047,r12             ; [] |287| 
        AND.W     #0,r13                ; [] |287| 
        AND.W     #0,r14                ; [] |287| 
        AND.W     #0,r15                ; [] |287| 
        TST.W     r15                   ; [] |287| 
        JNE       $C$L27                ; [] |287| 
                                          ; [] |287| 
;* --------------------------------------------------------------------------*
        TST.W     r14                   ; [] |287| 
        JNE       $C$L27                ; [] |287| 
                                          ; [] |287| 
;* --------------------------------------------------------------------------*
        TST.W     r13                   ; [] |287| 
        JNE       $C$L27                ; [] |287| 
                                          ; [] |287| 
;* --------------------------------------------------------------------------*
        TST.W     r12                   ; [] |287| 
        JEQ       $C$L28                ; [] |287| 
                                          ; [] |287| 
;* --------------------------------------------------------------------------*
$C$L27:    
        AND.W     #32752,r7             ; [] |287| 
        CMP.W     #32752,r7             ; [] |287| 
        JEQ       $C$L28                ; [] |287| 
                                          ; [] |287| 
;* --------------------------------------------------------------------------*
        MOV.W     #1,r6                 ; [] |287| 
;* --------------------------------------------------------------------------*
$C$L28:    
        MOV.W     r6,r12                ; [] |287| 
	.dwpsn	file "C:/ti/ccsv8/tools/compiler/ti-cgt-msp430_18.1.4.LTS/include/_defs.h",line 288,column 48,is_stmt,isa 0
$C$DW$95	.dwtag  DW_TAG_TI_branch
	.dwattr $C$DW$95, DW_AT_low_pc(0x00)
	.dwattr $C$DW$95, DW_AT_TI_return

        BR        #__mspabi_func_epilog_5 ; [] 
        ; [] 
	.dwattr $C$DW$91, DW_AT_TI_end_file("C:/ti/ccsv8/tools/compiler/ti-cgt-msp430_18.1.4.LTS/include/_defs.h")
	.dwattr $C$DW$91, DW_AT_TI_end_line(0x120)
	.dwattr $C$DW$91, DW_AT_TI_end_column(0x30)
	.dwendentry
	.dwendtag $C$DW$91

	.sect	".text:__isnanl"
	.clink
	.global	__isnanl

$C$DW$96	.dwtag  DW_TAG_subprogram
	.dwattr $C$DW$96, DW_AT_name("__isnanl")
	.dwattr $C$DW$96, DW_AT_low_pc(__isnanl)
	.dwattr $C$DW$96, DW_AT_high_pc(0x00)
	.dwattr $C$DW$96, DW_AT_TI_symbol_name("__isnanl")
	.dwattr $C$DW$96, DW_AT_external
	.dwattr $C$DW$96, DW_AT_type(*$C$DW$T$10)
	.dwattr $C$DW$96, DW_AT_TI_begin_file("C:/ti/ccsv8/tools/compiler/ti-cgt-msp430_18.1.4.LTS/include/_defs.h")
	.dwattr $C$DW$96, DW_AT_TI_begin_line(0x11a)
	.dwattr $C$DW$96, DW_AT_TI_begin_column(0x1b)
	.dwattr $C$DW$96, DW_AT_decl_file("C:/ti/ccsv8/tools/compiler/ti-cgt-msp430_18.1.4.LTS/include/_defs.h")
	.dwattr $C$DW$96, DW_AT_decl_line(0x11a)
	.dwattr $C$DW$96, DW_AT_decl_column(0x1b)
	.dwattr $C$DW$96, DW_AT_TI_max_frame_size(0x04)
	.dwpsn	file "C:/ti/ccsv8/tools/compiler/ti-cgt-msp430_18.1.4.LTS/include/_defs.h",line 283,column 1,is_stmt,address __isnanl,isa 0

	.dwfde $C$DW$CIE, __isnanl
$C$DW$97	.dwtag  DW_TAG_formal_parameter
	.dwattr $C$DW$97, DW_AT_name("e")
	.dwattr $C$DW$97, DW_AT_TI_symbol_name("e")
	.dwattr $C$DW$97, DW_AT_type(*$C$DW$T$18)
	.dwattr $C$DW$97, DW_AT_location[DW_OP_reg12]


;*****************************************************************************
;* FUNCTION NAME: __isnanl                                                   *
;*                                                                           *
;*   Regs Modified     : SP,SR,r10,r11,r12,r13,r14,r15                       *
;*   Regs Used         : SP,SR,r10,r11,r12,r13,r14,r15                       *
;*   Local Frame Size  : 0 Args + 0 Auto + 2 Save = 2 byte                   *
;*****************************************************************************
__isnanl:
;* --------------------------------------------------------------------------*
	.dwcfi	cfa_offset, 2
	.dwcfi	save_reg_to_mem, 16, -2
        PUSH.W    r10                   ; [] 
	.dwcfi	cfa_offset, 4
	.dwcfi	save_reg_to_mem, 10, -4
;* r11   assigned to $O$S1
	.dwpsn	file "C:/ti/ccsv8/tools/compiler/ti-cgt-msp430_18.1.4.LTS/include/_defs.h",line 283,column 3,is_stmt,isa 0
        MOV.W     #0,r11                ; [] |283| 
        MOV.W     r15,r10               ; [] |283| 
        AND.W     #32752,r10            ; [] |283| 
        CMP.W     #32752,r10            ; [] |283| 
        JNE       $C$L30                ; [] |283| 
                                          ; [] |283| 
;* --------------------------------------------------------------------------*
        AND.W     #65535,r12            ; [] |283| 
        AND.W     #65535,r13            ; [] |283| 
        AND.W     #65535,r14            ; [] |283| 
        AND.W     #15,r15               ; [] |283| 
        TST.W     r15                   ; [] |283| 
        JNE       $C$L29                ; [] |283| 
                                          ; [] |283| 
;* --------------------------------------------------------------------------*
        TST.W     r14                   ; [] |283| 
        JNE       $C$L29                ; [] |283| 
                                          ; [] |283| 
;* --------------------------------------------------------------------------*
        TST.W     r13                   ; [] |283| 
        JNE       $C$L29                ; [] |283| 
                                          ; [] |283| 
;* --------------------------------------------------------------------------*
        TST.W     r12                   ; [] |283| 
        JEQ       $C$L30                ; [] |283| 
                                          ; [] |283| 
;* --------------------------------------------------------------------------*
$C$L29:    
        MOV.W     #1,r11                ; [] |283| 
;* --------------------------------------------------------------------------*
$C$L30:    
        MOV.W     r11,r12               ; [] |283| 
	.dwpsn	file "C:/ti/ccsv8/tools/compiler/ti-cgt-msp430_18.1.4.LTS/include/_defs.h",line 284,column 48,is_stmt,isa 0
        POP       r10                   ; [] 
	.dwcfi	restore_reg, 10
	.dwcfi	cfa_offset, 2
$C$DW$98	.dwtag  DW_TAG_TI_branch
	.dwattr $C$DW$98, DW_AT_low_pc(0x00)
	.dwattr $C$DW$98, DW_AT_TI_return

        RET       ; [] 
        ; [] 
	.dwattr $C$DW$96, DW_AT_TI_end_file("C:/ti/ccsv8/tools/compiler/ti-cgt-msp430_18.1.4.LTS/include/_defs.h")
	.dwattr $C$DW$96, DW_AT_TI_end_line(0x11c)
	.dwattr $C$DW$96, DW_AT_TI_end_column(0x30)
	.dwendentry
	.dwendtag $C$DW$96

	.sect	".text:__isnanf"
	.clink
	.global	__isnanf

$C$DW$99	.dwtag  DW_TAG_subprogram
	.dwattr $C$DW$99, DW_AT_name("__isnanf")
	.dwattr $C$DW$99, DW_AT_low_pc(__isnanf)
	.dwattr $C$DW$99, DW_AT_high_pc(0x00)
	.dwattr $C$DW$99, DW_AT_TI_symbol_name("__isnanf")
	.dwattr $C$DW$99, DW_AT_external
	.dwattr $C$DW$99, DW_AT_type(*$C$DW$T$10)
	.dwattr $C$DW$99, DW_AT_TI_begin_file("C:/ti/ccsv8/tools/compiler/ti-cgt-msp430_18.1.4.LTS/include/_defs.h")
	.dwattr $C$DW$99, DW_AT_TI_begin_line(0x117)
	.dwattr $C$DW$99, DW_AT_TI_begin_column(0x1b)
	.dwattr $C$DW$99, DW_AT_decl_file("C:/ti/ccsv8/tools/compiler/ti-cgt-msp430_18.1.4.LTS/include/_defs.h")
	.dwattr $C$DW$99, DW_AT_decl_line(0x117)
	.dwattr $C$DW$99, DW_AT_decl_column(0x1b)
	.dwattr $C$DW$99, DW_AT_TI_max_frame_size(0x02)
	.dwpsn	file "C:/ti/ccsv8/tools/compiler/ti-cgt-msp430_18.1.4.LTS/include/_defs.h",line 280,column 1,is_stmt,address __isnanf,isa 0

	.dwfde $C$DW$CIE, __isnanf
$C$DW$100	.dwtag  DW_TAG_formal_parameter
	.dwattr $C$DW$100, DW_AT_name("f")
	.dwattr $C$DW$100, DW_AT_TI_symbol_name("f")
	.dwattr $C$DW$100, DW_AT_type(*$C$DW$T$16)
	.dwattr $C$DW$100, DW_AT_location[DW_OP_reg12]


;*****************************************************************************
;* FUNCTION NAME: __isnanf                                                   *
;*                                                                           *
;*   Regs Modified     : SP,SR,r12,r13,r14,r15                               *
;*   Regs Used         : SP,SR,r12,r13,r14,r15                               *
;*   Local Frame Size  : 0 Args + 0 Auto + 0 Save = 0 byte                   *
;*****************************************************************************
__isnanf:
;* --------------------------------------------------------------------------*
	.dwcfi	cfa_offset, 2
	.dwcfi	save_reg_to_mem, 16, -2
;* r15   assigned to $O$S1
	.dwpsn	file "C:/ti/ccsv8/tools/compiler/ti-cgt-msp430_18.1.4.LTS/include/_defs.h",line 280,column 3,is_stmt,isa 0
        MOV.W     #0,r15                ; [] |280| 
        MOV.W     r13,r14               ; [] |280| 
        AND.W     #32640,r14            ; [] |280| 
        CMP.W     #32640,r14            ; [] |280| 
        JNE       $C$L32                ; [] |280| 
                                          ; [] |280| 
;* --------------------------------------------------------------------------*
        AND.W     #65535,r12            ; [] |280| 
        AND.W     #127,r13              ; [] |280| 
        TST.W     r13                   ; [] |280| 
        JNE       $C$L31                ; [] |280| 
                                          ; [] |280| 
;* --------------------------------------------------------------------------*
        TST.W     r12                   ; [] |280| 
        JEQ       $C$L32                ; [] |280| 
                                          ; [] |280| 
;* --------------------------------------------------------------------------*
$C$L31:    
        MOV.W     #1,r15                ; [] |280| 
;* --------------------------------------------------------------------------*
$C$L32:    
        MOV.W     r15,r12               ; [] |280| 
	.dwpsn	file "C:/ti/ccsv8/tools/compiler/ti-cgt-msp430_18.1.4.LTS/include/_defs.h",line 281,column 46,is_stmt,isa 0
$C$DW$101	.dwtag  DW_TAG_TI_branch
	.dwattr $C$DW$101, DW_AT_low_pc(0x00)
	.dwattr $C$DW$101, DW_AT_TI_return

        RET       ; [] 
        ; [] 
	.dwattr $C$DW$99, DW_AT_TI_end_file("C:/ti/ccsv8/tools/compiler/ti-cgt-msp430_18.1.4.LTS/include/_defs.h")
	.dwattr $C$DW$99, DW_AT_TI_end_line(0x119)
	.dwattr $C$DW$99, DW_AT_TI_end_column(0x2e)
	.dwendentry
	.dwendtag $C$DW$99

	.sect	".text:__isnan"
	.clink
	.global	__isnan

$C$DW$102	.dwtag  DW_TAG_subprogram
	.dwattr $C$DW$102, DW_AT_name("__isnan")
	.dwattr $C$DW$102, DW_AT_low_pc(__isnan)
	.dwattr $C$DW$102, DW_AT_high_pc(0x00)
	.dwattr $C$DW$102, DW_AT_TI_symbol_name("__isnan")
	.dwattr $C$DW$102, DW_AT_external
	.dwattr $C$DW$102, DW_AT_type(*$C$DW$T$10)
	.dwattr $C$DW$102, DW_AT_TI_begin_file("C:/ti/ccsv8/tools/compiler/ti-cgt-msp430_18.1.4.LTS/include/_defs.h")
	.dwattr $C$DW$102, DW_AT_TI_begin_line(0x114)
	.dwattr $C$DW$102, DW_AT_TI_begin_column(0x1b)
	.dwattr $C$DW$102, DW_AT_decl_file("C:/ti/ccsv8/tools/compiler/ti-cgt-msp430_18.1.4.LTS/include/_defs.h")
	.dwattr $C$DW$102, DW_AT_decl_line(0x114)
	.dwattr $C$DW$102, DW_AT_decl_column(0x1b)
	.dwattr $C$DW$102, DW_AT_TI_max_frame_size(0x04)
	.dwpsn	file "C:/ti/ccsv8/tools/compiler/ti-cgt-msp430_18.1.4.LTS/include/_defs.h",line 277,column 1,is_stmt,address __isnan,isa 0

	.dwfde $C$DW$CIE, __isnan
$C$DW$103	.dwtag  DW_TAG_formal_parameter
	.dwattr $C$DW$103, DW_AT_name("d")
	.dwattr $C$DW$103, DW_AT_TI_symbol_name("d")
	.dwattr $C$DW$103, DW_AT_type(*$C$DW$T$17)
	.dwattr $C$DW$103, DW_AT_location[DW_OP_reg12]


;*****************************************************************************
;* FUNCTION NAME: __isnan                                                    *
;*                                                                           *
;*   Regs Modified     : SP,SR,r10,r11,r12,r13,r14,r15                       *
;*   Regs Used         : SP,SR,r10,r11,r12,r13,r14,r15                       *
;*   Local Frame Size  : 0 Args + 0 Auto + 2 Save = 2 byte                   *
;*****************************************************************************
__isnan:
;* --------------------------------------------------------------------------*
	.dwcfi	cfa_offset, 2
	.dwcfi	save_reg_to_mem, 16, -2
        PUSH.W    r10                   ; [] 
	.dwcfi	cfa_offset, 4
	.dwcfi	save_reg_to_mem, 10, -4
;* r11   assigned to $O$S1
	.dwpsn	file "C:/ti/ccsv8/tools/compiler/ti-cgt-msp430_18.1.4.LTS/include/_defs.h",line 277,column 3,is_stmt,isa 0
        MOV.W     #0,r11                ; [] |277| 
        MOV.W     r15,r10               ; [] |277| 
        AND.W     #32752,r10            ; [] |277| 
        CMP.W     #32752,r10            ; [] |277| 
        JNE       $C$L34                ; [] |277| 
                                          ; [] |277| 
;* --------------------------------------------------------------------------*
        AND.W     #65535,r12            ; [] |277| 
        AND.W     #65535,r13            ; [] |277| 
        AND.W     #65535,r14            ; [] |277| 
        AND.W     #15,r15               ; [] |277| 
        TST.W     r15                   ; [] |277| 
        JNE       $C$L33                ; [] |277| 
                                          ; [] |277| 
;* --------------------------------------------------------------------------*
        TST.W     r14                   ; [] |277| 
        JNE       $C$L33                ; [] |277| 
                                          ; [] |277| 
;* --------------------------------------------------------------------------*
        TST.W     r13                   ; [] |277| 
        JNE       $C$L33                ; [] |277| 
                                          ; [] |277| 
;* --------------------------------------------------------------------------*
        TST.W     r12                   ; [] |277| 
        JEQ       $C$L34                ; [] |277| 
                                          ; [] |277| 
;* --------------------------------------------------------------------------*
$C$L33:    
        MOV.W     #1,r11                ; [] |277| 
;* --------------------------------------------------------------------------*
$C$L34:    
        MOV.W     r11,r12               ; [] |277| 
	.dwpsn	file "C:/ti/ccsv8/tools/compiler/ti-cgt-msp430_18.1.4.LTS/include/_defs.h",line 278,column 47,is_stmt,isa 0
        POP       r10                   ; [] 
	.dwcfi	restore_reg, 10
	.dwcfi	cfa_offset, 2
$C$DW$104	.dwtag  DW_TAG_TI_branch
	.dwattr $C$DW$104, DW_AT_low_pc(0x00)
	.dwattr $C$DW$104, DW_AT_TI_return

        RET       ; [] 
        ; [] 
	.dwattr $C$DW$102, DW_AT_TI_end_file("C:/ti/ccsv8/tools/compiler/ti-cgt-msp430_18.1.4.LTS/include/_defs.h")
	.dwattr $C$DW$102, DW_AT_TI_end_line(0x116)
	.dwattr $C$DW$102, DW_AT_TI_end_column(0x2f)
	.dwendentry
	.dwendtag $C$DW$102

	.sect	".text:__isinfl"
	.clink
	.global	__isinfl

$C$DW$105	.dwtag  DW_TAG_subprogram
	.dwattr $C$DW$105, DW_AT_name("__isinfl")
	.dwattr $C$DW$105, DW_AT_low_pc(__isinfl)
	.dwattr $C$DW$105, DW_AT_high_pc(0x00)
	.dwattr $C$DW$105, DW_AT_TI_symbol_name("__isinfl")
	.dwattr $C$DW$105, DW_AT_external
	.dwattr $C$DW$105, DW_AT_type(*$C$DW$T$10)
	.dwattr $C$DW$105, DW_AT_TI_begin_file("C:/ti/ccsv8/tools/compiler/ti-cgt-msp430_18.1.4.LTS/include/_defs.h")
	.dwattr $C$DW$105, DW_AT_TI_begin_line(0x139)
	.dwattr $C$DW$105, DW_AT_TI_begin_column(0x1b)
	.dwattr $C$DW$105, DW_AT_decl_file("C:/ti/ccsv8/tools/compiler/ti-cgt-msp430_18.1.4.LTS/include/_defs.h")
	.dwattr $C$DW$105, DW_AT_decl_line(0x139)
	.dwattr $C$DW$105, DW_AT_decl_column(0x1b)
	.dwattr $C$DW$105, DW_AT_TI_max_frame_size(0x04)
	.dwpsn	file "C:/ti/ccsv8/tools/compiler/ti-cgt-msp430_18.1.4.LTS/include/_defs.h",line 314,column 1,is_stmt,address __isinfl,isa 0

	.dwfde $C$DW$CIE, __isinfl
$C$DW$106	.dwtag  DW_TAG_formal_parameter
	.dwattr $C$DW$106, DW_AT_name("e")
	.dwattr $C$DW$106, DW_AT_TI_symbol_name("e")
	.dwattr $C$DW$106, DW_AT_type(*$C$DW$T$18)
	.dwattr $C$DW$106, DW_AT_location[DW_OP_reg12]


;*****************************************************************************
;* FUNCTION NAME: __isinfl                                                   *
;*                                                                           *
;*   Regs Modified     : SP,SR,r10,r11,r12,r13,r14,r15                       *
;*   Regs Used         : SP,SR,r10,r11,r12,r13,r14,r15                       *
;*   Local Frame Size  : 0 Args + 0 Auto + 2 Save = 2 byte                   *
;*****************************************************************************
__isinfl:
;* --------------------------------------------------------------------------*
	.dwcfi	cfa_offset, 2
	.dwcfi	save_reg_to_mem, 16, -2
        PUSH.W    r10                   ; [] 
	.dwcfi	cfa_offset, 4
	.dwcfi	save_reg_to_mem, 10, -4
;* r11   assigned to $O$S1
	.dwpsn	file "C:/ti/ccsv8/tools/compiler/ti-cgt-msp430_18.1.4.LTS/include/_defs.h",line 314,column 3,is_stmt,isa 0
        MOV.W     #0,r11                ; [] |314| 
        MOV.W     r15,r10               ; [] |314| 
        AND.W     #32752,r10            ; [] |314| 
        CMP.W     #32752,r10            ; [] |314| 
        JNE       $C$L35                ; [] |314| 
                                          ; [] |314| 
;* --------------------------------------------------------------------------*
        AND.W     #65535,r12            ; [] |314| 
        AND.W     #65535,r13            ; [] |314| 
        AND.W     #65535,r14            ; [] |314| 
        AND.W     #15,r15               ; [] |314| 
        TST.W     r15                   ; [] |314| 
        JNE       $C$L35                ; [] |314| 
                                          ; [] |314| 
;* --------------------------------------------------------------------------*
        TST.W     r14                   ; [] |314| 
        JNE       $C$L35                ; [] |314| 
                                          ; [] |314| 
;* --------------------------------------------------------------------------*
        TST.W     r13                   ; [] |314| 
        JNE       $C$L35                ; [] |314| 
                                          ; [] |314| 
;* --------------------------------------------------------------------------*
        TST.W     r12                   ; [] |314| 
        JNE       $C$L35                ; [] |314| 
                                          ; [] |314| 
;* --------------------------------------------------------------------------*
        MOV.W     #1,r11                ; [] |314| 
;* --------------------------------------------------------------------------*
$C$L35:    
        MOV.W     r11,r12               ; [] |314| 
	.dwpsn	file "C:/ti/ccsv8/tools/compiler/ti-cgt-msp430_18.1.4.LTS/include/_defs.h",line 314,column 76,is_stmt,isa 0
        POP       r10                   ; [] 
	.dwcfi	restore_reg, 10
	.dwcfi	cfa_offset, 2
$C$DW$107	.dwtag  DW_TAG_TI_branch
	.dwattr $C$DW$107, DW_AT_low_pc(0x00)
	.dwattr $C$DW$107, DW_AT_TI_return

        RET       ; [] 
        ; [] 
	.dwattr $C$DW$105, DW_AT_TI_end_file("C:/ti/ccsv8/tools/compiler/ti-cgt-msp430_18.1.4.LTS/include/_defs.h")
	.dwattr $C$DW$105, DW_AT_TI_end_line(0x13a)
	.dwattr $C$DW$105, DW_AT_TI_end_column(0x4c)
	.dwendentry
	.dwendtag $C$DW$105

	.sect	".text:__isinff"
	.clink
	.global	__isinff

$C$DW$108	.dwtag  DW_TAG_subprogram
	.dwattr $C$DW$108, DW_AT_name("__isinff")
	.dwattr $C$DW$108, DW_AT_low_pc(__isinff)
	.dwattr $C$DW$108, DW_AT_high_pc(0x00)
	.dwattr $C$DW$108, DW_AT_TI_symbol_name("__isinff")
	.dwattr $C$DW$108, DW_AT_external
	.dwattr $C$DW$108, DW_AT_type(*$C$DW$T$10)
	.dwattr $C$DW$108, DW_AT_TI_begin_file("C:/ti/ccsv8/tools/compiler/ti-cgt-msp430_18.1.4.LTS/include/_defs.h")
	.dwattr $C$DW$108, DW_AT_TI_begin_line(0x135)
	.dwattr $C$DW$108, DW_AT_TI_begin_column(0x1b)
	.dwattr $C$DW$108, DW_AT_decl_file("C:/ti/ccsv8/tools/compiler/ti-cgt-msp430_18.1.4.LTS/include/_defs.h")
	.dwattr $C$DW$108, DW_AT_decl_line(0x135)
	.dwattr $C$DW$108, DW_AT_decl_column(0x1b)
	.dwattr $C$DW$108, DW_AT_TI_max_frame_size(0x02)
	.dwpsn	file "C:/ti/ccsv8/tools/compiler/ti-cgt-msp430_18.1.4.LTS/include/_defs.h",line 310,column 1,is_stmt,address __isinff,isa 0

	.dwfde $C$DW$CIE, __isinff
$C$DW$109	.dwtag  DW_TAG_formal_parameter
	.dwattr $C$DW$109, DW_AT_name("f")
	.dwattr $C$DW$109, DW_AT_TI_symbol_name("f")
	.dwattr $C$DW$109, DW_AT_type(*$C$DW$T$16)
	.dwattr $C$DW$109, DW_AT_location[DW_OP_reg12]


;*****************************************************************************
;* FUNCTION NAME: __isinff                                                   *
;*                                                                           *
;*   Regs Modified     : SP,SR,r12,r13,r14,r15                               *
;*   Regs Used         : SP,SR,r12,r13,r14,r15                               *
;*   Local Frame Size  : 0 Args + 0 Auto + 0 Save = 0 byte                   *
;*****************************************************************************
__isinff:
;* --------------------------------------------------------------------------*
	.dwcfi	cfa_offset, 2
	.dwcfi	save_reg_to_mem, 16, -2
;* r15   assigned to $O$S1
	.dwpsn	file "C:/ti/ccsv8/tools/compiler/ti-cgt-msp430_18.1.4.LTS/include/_defs.h",line 310,column 3,is_stmt,isa 0
        MOV.W     #0,r15                ; [] |310| 
        MOV.W     r13,r14               ; [] |310| 
        AND.W     #32640,r14            ; [] |310| 
        CMP.W     #32640,r14            ; [] |310| 
        JNE       $C$L36                ; [] |310| 
                                          ; [] |310| 
;* --------------------------------------------------------------------------*
        AND.W     #65535,r12            ; [] |310| 
        AND.W     #127,r13              ; [] |310| 
        TST.W     r13                   ; [] |310| 
        JNE       $C$L36                ; [] |310| 
                                          ; [] |310| 
;* --------------------------------------------------------------------------*
        TST.W     r12                   ; [] |310| 
        JNE       $C$L36                ; [] |310| 
                                          ; [] |310| 
;* --------------------------------------------------------------------------*
        MOV.W     #1,r15                ; [] |310| 
;* --------------------------------------------------------------------------*
$C$L36:    
        MOV.W     r15,r12               ; [] |310| 
	.dwpsn	file "C:/ti/ccsv8/tools/compiler/ti-cgt-msp430_18.1.4.LTS/include/_defs.h",line 310,column 72,is_stmt,isa 0
$C$DW$110	.dwtag  DW_TAG_TI_branch
	.dwattr $C$DW$110, DW_AT_low_pc(0x00)
	.dwattr $C$DW$110, DW_AT_TI_return

        RET       ; [] 
        ; [] 
	.dwattr $C$DW$108, DW_AT_TI_end_file("C:/ti/ccsv8/tools/compiler/ti-cgt-msp430_18.1.4.LTS/include/_defs.h")
	.dwattr $C$DW$108, DW_AT_TI_end_line(0x136)
	.dwattr $C$DW$108, DW_AT_TI_end_column(0x48)
	.dwendentry
	.dwendtag $C$DW$108

	.sect	".text:__isinf"
	.clink
	.global	__isinf

$C$DW$111	.dwtag  DW_TAG_subprogram
	.dwattr $C$DW$111, DW_AT_name("__isinf")
	.dwattr $C$DW$111, DW_AT_low_pc(__isinf)
	.dwattr $C$DW$111, DW_AT_high_pc(0x00)
	.dwattr $C$DW$111, DW_AT_TI_symbol_name("__isinf")
	.dwattr $C$DW$111, DW_AT_external
	.dwattr $C$DW$111, DW_AT_type(*$C$DW$T$10)
	.dwattr $C$DW$111, DW_AT_TI_begin_file("C:/ti/ccsv8/tools/compiler/ti-cgt-msp430_18.1.4.LTS/include/_defs.h")
	.dwattr $C$DW$111, DW_AT_TI_begin_line(0x137)
	.dwattr $C$DW$111, DW_AT_TI_begin_column(0x1b)
	.dwattr $C$DW$111, DW_AT_decl_file("C:/ti/ccsv8/tools/compiler/ti-cgt-msp430_18.1.4.LTS/include/_defs.h")
	.dwattr $C$DW$111, DW_AT_decl_line(0x137)
	.dwattr $C$DW$111, DW_AT_decl_column(0x1b)
	.dwattr $C$DW$111, DW_AT_TI_max_frame_size(0x04)
	.dwpsn	file "C:/ti/ccsv8/tools/compiler/ti-cgt-msp430_18.1.4.LTS/include/_defs.h",line 312,column 1,is_stmt,address __isinf,isa 0

	.dwfde $C$DW$CIE, __isinf
$C$DW$112	.dwtag  DW_TAG_formal_parameter
	.dwattr $C$DW$112, DW_AT_name("d")
	.dwattr $C$DW$112, DW_AT_TI_symbol_name("d")
	.dwattr $C$DW$112, DW_AT_type(*$C$DW$T$17)
	.dwattr $C$DW$112, DW_AT_location[DW_OP_reg12]


;*****************************************************************************
;* FUNCTION NAME: __isinf                                                    *
;*                                                                           *
;*   Regs Modified     : SP,SR,r10,r11,r12,r13,r14,r15                       *
;*   Regs Used         : SP,SR,r10,r11,r12,r13,r14,r15                       *
;*   Local Frame Size  : 0 Args + 0 Auto + 2 Save = 2 byte                   *
;*****************************************************************************
__isinf:
;* --------------------------------------------------------------------------*
	.dwcfi	cfa_offset, 2
	.dwcfi	save_reg_to_mem, 16, -2
        PUSH.W    r10                   ; [] 
	.dwcfi	cfa_offset, 4
	.dwcfi	save_reg_to_mem, 10, -4
;* r11   assigned to $O$S1
	.dwpsn	file "C:/ti/ccsv8/tools/compiler/ti-cgt-msp430_18.1.4.LTS/include/_defs.h",line 312,column 3,is_stmt,isa 0
        MOV.W     #0,r11                ; [] |312| 
        MOV.W     r15,r10               ; [] |312| 
        AND.W     #32752,r10            ; [] |312| 
        CMP.W     #32752,r10            ; [] |312| 
        JNE       $C$L37                ; [] |312| 
                                          ; [] |312| 
;* --------------------------------------------------------------------------*
        AND.W     #65535,r12            ; [] |312| 
        AND.W     #65535,r13            ; [] |312| 
        AND.W     #65535,r14            ; [] |312| 
        AND.W     #15,r15               ; [] |312| 
        TST.W     r15                   ; [] |312| 
        JNE       $C$L37                ; [] |312| 
                                          ; [] |312| 
;* --------------------------------------------------------------------------*
        TST.W     r14                   ; [] |312| 
        JNE       $C$L37                ; [] |312| 
                                          ; [] |312| 
;* --------------------------------------------------------------------------*
        TST.W     r13                   ; [] |312| 
        JNE       $C$L37                ; [] |312| 
                                          ; [] |312| 
;* --------------------------------------------------------------------------*
        TST.W     r12                   ; [] |312| 
        JNE       $C$L37                ; [] |312| 
                                          ; [] |312| 
;* --------------------------------------------------------------------------*
        MOV.W     #1,r11                ; [] |312| 
;* --------------------------------------------------------------------------*
$C$L37:    
        MOV.W     r11,r12               ; [] |312| 
	.dwpsn	file "C:/ti/ccsv8/tools/compiler/ti-cgt-msp430_18.1.4.LTS/include/_defs.h",line 312,column 74,is_stmt,isa 0
        POP       r10                   ; [] 
	.dwcfi	restore_reg, 10
	.dwcfi	cfa_offset, 2
$C$DW$113	.dwtag  DW_TAG_TI_branch
	.dwattr $C$DW$113, DW_AT_low_pc(0x00)
	.dwattr $C$DW$113, DW_AT_TI_return

        RET       ; [] 
        ; [] 
	.dwattr $C$DW$111, DW_AT_TI_end_file("C:/ti/ccsv8/tools/compiler/ti-cgt-msp430_18.1.4.LTS/include/_defs.h")
	.dwattr $C$DW$111, DW_AT_TI_end_line(0x138)
	.dwattr $C$DW$111, DW_AT_TI_end_column(0x4a)
	.dwendentry
	.dwendtag $C$DW$111

	.sect	".text:__isfinitel"
	.clink
	.global	__isfinitel

$C$DW$114	.dwtag  DW_TAG_subprogram
	.dwattr $C$DW$114, DW_AT_name("__isfinitel")
	.dwattr $C$DW$114, DW_AT_low_pc(__isfinitel)
	.dwattr $C$DW$114, DW_AT_high_pc(0x00)
	.dwattr $C$DW$114, DW_AT_TI_symbol_name("__isfinitel")
	.dwattr $C$DW$114, DW_AT_external
	.dwattr $C$DW$114, DW_AT_type(*$C$DW$T$10)
	.dwattr $C$DW$114, DW_AT_TI_begin_file("C:/ti/ccsv8/tools/compiler/ti-cgt-msp430_18.1.4.LTS/include/_defs.h")
	.dwattr $C$DW$114, DW_AT_TI_begin_line(0x111)
	.dwattr $C$DW$114, DW_AT_TI_begin_column(0x1b)
	.dwattr $C$DW$114, DW_AT_decl_file("C:/ti/ccsv8/tools/compiler/ti-cgt-msp430_18.1.4.LTS/include/_defs.h")
	.dwattr $C$DW$114, DW_AT_decl_line(0x111)
	.dwattr $C$DW$114, DW_AT_decl_column(0x1b)
	.dwattr $C$DW$114, DW_AT_TI_max_frame_size(0x02)
	.dwpsn	file "C:/ti/ccsv8/tools/compiler/ti-cgt-msp430_18.1.4.LTS/include/_defs.h",line 274,column 1,is_stmt,address __isfinitel,isa 0

	.dwfde $C$DW$CIE, __isfinitel
$C$DW$115	.dwtag  DW_TAG_formal_parameter
	.dwattr $C$DW$115, DW_AT_name("e")
	.dwattr $C$DW$115, DW_AT_TI_symbol_name("e")
	.dwattr $C$DW$115, DW_AT_type(*$C$DW$T$18)
	.dwattr $C$DW$115, DW_AT_location[DW_OP_reg12]


;*****************************************************************************
;* FUNCTION NAME: __isfinitel                                                *
;*                                                                           *
;*   Regs Modified     : SP,SR,r12,r15                                       *
;*   Regs Used         : SP,SR,r12,r15                                       *
;*   Local Frame Size  : 0 Args + 0 Auto + 0 Save = 0 byte                   *
;*****************************************************************************
__isfinitel:
;* --------------------------------------------------------------------------*
	.dwcfi	cfa_offset, 2
	.dwcfi	save_reg_to_mem, 16, -2
	.dwpsn	file "C:/ti/ccsv8/tools/compiler/ti-cgt-msp430_18.1.4.LTS/include/_defs.h",line 274,column 3,is_stmt,isa 0
        MOV.W     #0,r12                ; [] |274| 
        AND.W     #32752,r15            ; [] |274| 
        CMP.W     #32752,r15            ; [] |274| 
        JEQ       $C$L38                ; [] |274| 
                                          ; [] |274| 
;* --------------------------------------------------------------------------*
        MOV.W     #1,r12                ; [] |274| 
;* --------------------------------------------------------------------------*
$C$L38:    
	.dwpsn	file "C:/ti/ccsv8/tools/compiler/ti-cgt-msp430_18.1.4.LTS/include/_defs.h",line 274,column 47,is_stmt,isa 0
$C$DW$116	.dwtag  DW_TAG_TI_branch
	.dwattr $C$DW$116, DW_AT_low_pc(0x00)
	.dwattr $C$DW$116, DW_AT_TI_return

        RET       ; [] 
        ; [] 
	.dwattr $C$DW$114, DW_AT_TI_end_file("C:/ti/ccsv8/tools/compiler/ti-cgt-msp430_18.1.4.LTS/include/_defs.h")
	.dwattr $C$DW$114, DW_AT_TI_end_line(0x112)
	.dwattr $C$DW$114, DW_AT_TI_end_column(0x2f)
	.dwendentry
	.dwendtag $C$DW$114

	.sect	".text:__isfinitef"
	.clink
	.global	__isfinitef

$C$DW$117	.dwtag  DW_TAG_subprogram
	.dwattr $C$DW$117, DW_AT_name("__isfinitef")
	.dwattr $C$DW$117, DW_AT_low_pc(__isfinitef)
	.dwattr $C$DW$117, DW_AT_high_pc(0x00)
	.dwattr $C$DW$117, DW_AT_TI_symbol_name("__isfinitef")
	.dwattr $C$DW$117, DW_AT_external
	.dwattr $C$DW$117, DW_AT_type(*$C$DW$T$10)
	.dwattr $C$DW$117, DW_AT_TI_begin_file("C:/ti/ccsv8/tools/compiler/ti-cgt-msp430_18.1.4.LTS/include/_defs.h")
	.dwattr $C$DW$117, DW_AT_TI_begin_line(0x10f)
	.dwattr $C$DW$117, DW_AT_TI_begin_column(0x1b)
	.dwattr $C$DW$117, DW_AT_decl_file("C:/ti/ccsv8/tools/compiler/ti-cgt-msp430_18.1.4.LTS/include/_defs.h")
	.dwattr $C$DW$117, DW_AT_decl_line(0x10f)
	.dwattr $C$DW$117, DW_AT_decl_column(0x1b)
	.dwattr $C$DW$117, DW_AT_TI_max_frame_size(0x02)
	.dwpsn	file "C:/ti/ccsv8/tools/compiler/ti-cgt-msp430_18.1.4.LTS/include/_defs.h",line 272,column 1,is_stmt,address __isfinitef,isa 0

	.dwfde $C$DW$CIE, __isfinitef
$C$DW$118	.dwtag  DW_TAG_formal_parameter
	.dwattr $C$DW$118, DW_AT_name("f")
	.dwattr $C$DW$118, DW_AT_TI_symbol_name("f")
	.dwattr $C$DW$118, DW_AT_type(*$C$DW$T$16)
	.dwattr $C$DW$118, DW_AT_location[DW_OP_reg12]


;*****************************************************************************
;* FUNCTION NAME: __isfinitef                                                *
;*                                                                           *
;*   Regs Modified     : SP,SR,r12,r13                                       *
;*   Regs Used         : SP,SR,r12,r13                                       *
;*   Local Frame Size  : 0 Args + 0 Auto + 0 Save = 0 byte                   *
;*****************************************************************************
__isfinitef:
;* --------------------------------------------------------------------------*
	.dwcfi	cfa_offset, 2
	.dwcfi	save_reg_to_mem, 16, -2
	.dwpsn	file "C:/ti/ccsv8/tools/compiler/ti-cgt-msp430_18.1.4.LTS/include/_defs.h",line 272,column 3,is_stmt,isa 0
        MOV.W     #0,r12                ; [] |272| 
        AND.W     #32640,r13            ; [] |272| 
        CMP.W     #32640,r13            ; [] |272| 
        JEQ       $C$L39                ; [] |272| 
                                          ; [] |272| 
;* --------------------------------------------------------------------------*
        MOV.W     #1,r12                ; [] |272| 
;* --------------------------------------------------------------------------*
$C$L39:    
	.dwpsn	file "C:/ti/ccsv8/tools/compiler/ti-cgt-msp430_18.1.4.LTS/include/_defs.h",line 272,column 45,is_stmt,isa 0
$C$DW$119	.dwtag  DW_TAG_TI_branch
	.dwattr $C$DW$119, DW_AT_low_pc(0x00)
	.dwattr $C$DW$119, DW_AT_TI_return

        RET       ; [] 
        ; [] 
	.dwattr $C$DW$117, DW_AT_TI_end_file("C:/ti/ccsv8/tools/compiler/ti-cgt-msp430_18.1.4.LTS/include/_defs.h")
	.dwattr $C$DW$117, DW_AT_TI_end_line(0x110)
	.dwattr $C$DW$117, DW_AT_TI_end_column(0x2d)
	.dwendentry
	.dwendtag $C$DW$117

	.sect	".text:__isfinite"
	.clink
	.global	__isfinite

$C$DW$120	.dwtag  DW_TAG_subprogram
	.dwattr $C$DW$120, DW_AT_name("__isfinite")
	.dwattr $C$DW$120, DW_AT_low_pc(__isfinite)
	.dwattr $C$DW$120, DW_AT_high_pc(0x00)
	.dwattr $C$DW$120, DW_AT_TI_symbol_name("__isfinite")
	.dwattr $C$DW$120, DW_AT_external
	.dwattr $C$DW$120, DW_AT_type(*$C$DW$T$10)
	.dwattr $C$DW$120, DW_AT_TI_begin_file("C:/ti/ccsv8/tools/compiler/ti-cgt-msp430_18.1.4.LTS/include/_defs.h")
	.dwattr $C$DW$120, DW_AT_TI_begin_line(0x10d)
	.dwattr $C$DW$120, DW_AT_TI_begin_column(0x1b)
	.dwattr $C$DW$120, DW_AT_decl_file("C:/ti/ccsv8/tools/compiler/ti-cgt-msp430_18.1.4.LTS/include/_defs.h")
	.dwattr $C$DW$120, DW_AT_decl_line(0x10d)
	.dwattr $C$DW$120, DW_AT_decl_column(0x1b)
	.dwattr $C$DW$120, DW_AT_TI_max_frame_size(0x02)
	.dwpsn	file "C:/ti/ccsv8/tools/compiler/ti-cgt-msp430_18.1.4.LTS/include/_defs.h",line 270,column 1,is_stmt,address __isfinite,isa 0

	.dwfde $C$DW$CIE, __isfinite
$C$DW$121	.dwtag  DW_TAG_formal_parameter
	.dwattr $C$DW$121, DW_AT_name("d")
	.dwattr $C$DW$121, DW_AT_TI_symbol_name("d")
	.dwattr $C$DW$121, DW_AT_type(*$C$DW$T$17)
	.dwattr $C$DW$121, DW_AT_location[DW_OP_reg12]


;*****************************************************************************
;* FUNCTION NAME: __isfinite                                                 *
;*                                                                           *
;*   Regs Modified     : SP,SR,r12,r15                                       *
;*   Regs Used         : SP,SR,r12,r15                                       *
;*   Local Frame Size  : 0 Args + 0 Auto + 0 Save = 0 byte                   *
;*****************************************************************************
__isfinite:
;* --------------------------------------------------------------------------*
	.dwcfi	cfa_offset, 2
	.dwcfi	save_reg_to_mem, 16, -2
	.dwpsn	file "C:/ti/ccsv8/tools/compiler/ti-cgt-msp430_18.1.4.LTS/include/_defs.h",line 270,column 3,is_stmt,isa 0
        MOV.W     #0,r12                ; [] |270| 
        AND.W     #32752,r15            ; [] |270| 
        CMP.W     #32752,r15            ; [] |270| 
        JEQ       $C$L40                ; [] |270| 
                                          ; [] |270| 
;* --------------------------------------------------------------------------*
        MOV.W     #1,r12                ; [] |270| 
;* --------------------------------------------------------------------------*
$C$L40:    
	.dwpsn	file "C:/ti/ccsv8/tools/compiler/ti-cgt-msp430_18.1.4.LTS/include/_defs.h",line 270,column 46,is_stmt,isa 0
$C$DW$122	.dwtag  DW_TAG_TI_branch
	.dwattr $C$DW$122, DW_AT_low_pc(0x00)
	.dwattr $C$DW$122, DW_AT_TI_return

        RET       ; [] 
        ; [] 
	.dwattr $C$DW$120, DW_AT_TI_end_file("C:/ti/ccsv8/tools/compiler/ti-cgt-msp430_18.1.4.LTS/include/_defs.h")
	.dwattr $C$DW$120, DW_AT_TI_end_line(0x10e)
	.dwattr $C$DW$120, DW_AT_TI_end_column(0x2e)
	.dwendentry
	.dwendtag $C$DW$120

	.sect	".text:__fpclassifyl"
	.clink
	.global	__fpclassifyl

$C$DW$123	.dwtag  DW_TAG_subprogram
	.dwattr $C$DW$123, DW_AT_name("__fpclassifyl")
	.dwattr $C$DW$123, DW_AT_low_pc(__fpclassifyl)
	.dwattr $C$DW$123, DW_AT_high_pc(0x00)
	.dwattr $C$DW$123, DW_AT_TI_symbol_name("__fpclassifyl")
	.dwattr $C$DW$123, DW_AT_external
	.dwattr $C$DW$123, DW_AT_type(*$C$DW$T$10)
	.dwattr $C$DW$123, DW_AT_TI_begin_file("C:/ti/ccsv8/tools/compiler/ti-cgt-msp430_18.1.4.LTS/include/_defs.h")
	.dwattr $C$DW$123, DW_AT_TI_begin_line(0x16d)
	.dwattr $C$DW$123, DW_AT_TI_begin_column(0x1b)
	.dwattr $C$DW$123, DW_AT_decl_file("C:/ti/ccsv8/tools/compiler/ti-cgt-msp430_18.1.4.LTS/include/_defs.h")
	.dwattr $C$DW$123, DW_AT_decl_line(0x16d)
	.dwattr $C$DW$123, DW_AT_decl_column(0x1b)
	.dwattr $C$DW$123, DW_AT_TI_max_frame_size(0x10)
	.dwpsn	file "C:/ti/ccsv8/tools/compiler/ti-cgt-msp430_18.1.4.LTS/include/_defs.h",line 366,column 1,is_stmt,address __fpclassifyl,isa 0

	.dwfde $C$DW$CIE, __fpclassifyl
$C$DW$124	.dwtag  DW_TAG_formal_parameter
	.dwattr $C$DW$124, DW_AT_name("e")
	.dwattr $C$DW$124, DW_AT_TI_symbol_name("e")
	.dwattr $C$DW$124, DW_AT_type(*$C$DW$T$18)
	.dwattr $C$DW$124, DW_AT_location[DW_OP_reg12]


;*****************************************************************************
;* FUNCTION NAME: __fpclassifyl                                              *
;*                                                                           *
;*   Regs Modified     : SP,SR,r4,r5,r6,r7,r8,r9,r10,r11,r12,r13,r14,r15     *
;*   Regs Used         : SP,SR,r4,r5,r6,r7,r8,r9,r10,r11,r12,r13,r14,r15     *
;*   Local Frame Size  : 0 Args + 0 Auto + 14 Save = 14 byte                 *
;*****************************************************************************
__fpclassifyl:
;* --------------------------------------------------------------------------*
	.dwcfi	cfa_offset, 2
	.dwcfi	save_reg_to_mem, 16, -2
        PUSH.W    r10                   ; [] 
	.dwcfi	cfa_offset, 4
	.dwcfi	save_reg_to_mem, 10, -4
        PUSH.W    r9                    ; [] 
	.dwcfi	cfa_offset, 6
	.dwcfi	save_reg_to_mem, 9, -6
        PUSH.W    r8                    ; [] 
	.dwcfi	cfa_offset, 8
	.dwcfi	save_reg_to_mem, 8, -8
        PUSH.W    r7                    ; [] 
	.dwcfi	cfa_offset, 10
	.dwcfi	save_reg_to_mem, 7, -10
        PUSH.W    r6                    ; [] 
	.dwcfi	cfa_offset, 12
	.dwcfi	save_reg_to_mem, 6, -12
        PUSH.W    r5                    ; [] 
	.dwcfi	cfa_offset, 14
	.dwcfi	save_reg_to_mem, 5, -14
        PUSH.W    r4                    ; [] 
	.dwcfi	cfa_offset, 16
	.dwcfi	save_reg_to_mem, 4, -16
;* r4    assigned to e
$C$DW$125	.dwtag  DW_TAG_variable
	.dwattr $C$DW$125, DW_AT_name("e")
	.dwattr $C$DW$125, DW_AT_TI_symbol_name("e")
	.dwattr $C$DW$125, DW_AT_type(*$C$DW$T$18)
	.dwattr $C$DW$125, DW_AT_location[DW_OP_reg4]

        MOV.W     r12,r4                ; [] |366| 
        MOV.W     r13,r5                ; [] |366| 
        MOV.W     r14,r6                ; [] |366| 
        MOV.W     r15,r7                ; [] |366| 
	.dwpsn	file "C:/ti/ccsv8/tools/compiler/ti-cgt-msp430_18.1.4.LTS/include/_defs.h",line 371,column 14,is_stmt,isa 0
        AND.W     #32752,r15            ; [] |371| 
        CMP.W     #32752,r15            ; [] |371| 
        JNE       $C$L43                ; [] |371| 
                                          ; [] |371| 
;* --------------------------------------------------------------------------*
        AND.W     #65535,r4             ; [] |371| 
        AND.W     #65535,r5             ; [] |371| 
        AND.W     #65535,r6             ; [] |371| 
        AND.W     #15,r7                ; [] |371| 
        TST.W     r7                    ; [] |371| 
        JNE       $C$L41                ; [] |371| 
                                          ; [] |371| 
;* --------------------------------------------------------------------------*
        TST.W     r6                    ; [] |371| 
        JNE       $C$L41                ; [] |371| 
                                          ; [] |371| 
;* --------------------------------------------------------------------------*
        TST.W     r5                    ; [] |371| 
        JNE       $C$L41                ; [] |371| 
                                          ; [] |371| 
;* --------------------------------------------------------------------------*
        TST.W     r4                    ; [] |371| 
        JEQ       $C$L42                ; [] |371| 
                                          ; [] |371| 
;* --------------------------------------------------------------------------*
$C$L41:    
        MOV.W     #2,r12                ; [] |371| 
        JMP       $C$L48                ; [] |371| 
                                          ; [] |371| 
;* --------------------------------------------------------------------------*
$C$L42:    
        MOV.W     #1,r12                ; [] |371| 
        JMP       $C$L48                ; [] |371| 
                                          ; [] |371| 
;* --------------------------------------------------------------------------*
$C$L43:    
        MOV.W     r4,r8                 ; [] |371| 
        MOV.W     r5,r9                 ; [] |371| 
        MOV.W     r6,r10                ; [] |371| 
        MOV.W     r7,r11                ; [] |371| 
        MOV.W     #52,r12               ; [] |371| 
$C$DW$126	.dwtag  DW_TAG_TI_branch
	.dwattr $C$DW$126, DW_AT_low_pc(0x00)
	.dwattr $C$DW$126, DW_AT_name("__mspabi_srlll")
	.dwattr $C$DW$126, DW_AT_TI_call

        CALL      #__mspabi_srlll       ; [] |371| 
                                          ; [] |371| 
        AND.W     #2047,r12             ; [] |371| 
        AND.W     #0,r13                ; [] |371| 
        AND.W     #0,r14                ; [] |371| 
        AND.W     #0,r15                ; [] |371| 
        TST.W     r15                   ; [] |371| 
        JNE       $C$L44                ; [] |371| 
                                          ; [] |371| 
;* --------------------------------------------------------------------------*
        TST.W     r14                   ; [] |371| 
        JNE       $C$L44                ; [] |371| 
                                          ; [] |371| 
;* --------------------------------------------------------------------------*
        TST.W     r13                   ; [] |371| 
        JNE       $C$L44                ; [] |371| 
                                          ; [] |371| 
;* --------------------------------------------------------------------------*
        TST.W     r12                   ; [] |371| 
        JEQ       $C$L45                ; [] |371| 
                                          ; [] |371| 
;* --------------------------------------------------------------------------*
$C$L44:    
        MOV.W     #-1,r12               ; [] |371| 
        JMP       $C$L48                ; [] |371| 
                                          ; [] |371| 
;* --------------------------------------------------------------------------*
$C$L45:    
        AND.W     #65535,r4             ; [] |371| 
        AND.W     #65535,r5             ; [] |371| 
        AND.W     #65535,r6             ; [] |371| 
        AND.W     #15,r7                ; [] |371| 
        TST.W     r7                    ; [] |371| 
        JNE       $C$L46                ; [] |371| 
                                          ; [] |371| 
;* --------------------------------------------------------------------------*
        TST.W     r6                    ; [] |371| 
        JNE       $C$L46                ; [] |371| 
                                          ; [] |371| 
;* --------------------------------------------------------------------------*
        TST.W     r5                    ; [] |371| 
        JNE       $C$L46                ; [] |371| 
                                          ; [] |371| 
;* --------------------------------------------------------------------------*
        TST.W     r4                    ; [] |371| 
        JEQ       $C$L47                ; [] |371| 
                                          ; [] |371| 
;* --------------------------------------------------------------------------*
$C$L46:    
        MOV.W     #65534,r12            ; [] |371| 
        JMP       $C$L48                ; [] |371| 
                                          ; [] |371| 
;* --------------------------------------------------------------------------*
$C$L47:    
        MOV.W     #0,r12                ; [] |371| 
;* --------------------------------------------------------------------------*
$C$L48:    
	.dwpsn	file "C:/ti/ccsv8/tools/compiler/ti-cgt-msp430_18.1.4.LTS/include/_defs.h",line 380,column 1,is_stmt,isa 0
$C$DW$127	.dwtag  DW_TAG_TI_branch
	.dwattr $C$DW$127, DW_AT_low_pc(0x00)
	.dwattr $C$DW$127, DW_AT_TI_return

        BR        #__mspabi_func_epilog_7 ; [] 
        ; [] 
	.dwattr $C$DW$123, DW_AT_TI_end_file("C:/ti/ccsv8/tools/compiler/ti-cgt-msp430_18.1.4.LTS/include/_defs.h")
	.dwattr $C$DW$123, DW_AT_TI_end_line(0x17c)
	.dwattr $C$DW$123, DW_AT_TI_end_column(0x01)
	.dwendentry
	.dwendtag $C$DW$123

	.sect	".text:__fpclassifyf"
	.clink
	.global	__fpclassifyf

$C$DW$128	.dwtag  DW_TAG_subprogram
	.dwattr $C$DW$128, DW_AT_name("__fpclassifyf")
	.dwattr $C$DW$128, DW_AT_low_pc(__fpclassifyf)
	.dwattr $C$DW$128, DW_AT_high_pc(0x00)
	.dwattr $C$DW$128, DW_AT_TI_symbol_name("__fpclassifyf")
	.dwattr $C$DW$128, DW_AT_external
	.dwattr $C$DW$128, DW_AT_type(*$C$DW$T$10)
	.dwattr $C$DW$128, DW_AT_TI_begin_file("C:/ti/ccsv8/tools/compiler/ti-cgt-msp430_18.1.4.LTS/include/_defs.h")
	.dwattr $C$DW$128, DW_AT_TI_begin_line(0x14b)
	.dwattr $C$DW$128, DW_AT_TI_begin_column(0x1b)
	.dwattr $C$DW$128, DW_AT_decl_file("C:/ti/ccsv8/tools/compiler/ti-cgt-msp430_18.1.4.LTS/include/_defs.h")
	.dwattr $C$DW$128, DW_AT_decl_line(0x14b)
	.dwattr $C$DW$128, DW_AT_decl_column(0x1b)
	.dwattr $C$DW$128, DW_AT_TI_max_frame_size(0x02)
	.dwpsn	file "C:/ti/ccsv8/tools/compiler/ti-cgt-msp430_18.1.4.LTS/include/_defs.h",line 332,column 1,is_stmt,address __fpclassifyf,isa 0

	.dwfde $C$DW$CIE, __fpclassifyf
$C$DW$129	.dwtag  DW_TAG_formal_parameter
	.dwattr $C$DW$129, DW_AT_name("f")
	.dwattr $C$DW$129, DW_AT_TI_symbol_name("f")
	.dwattr $C$DW$129, DW_AT_type(*$C$DW$T$16)
	.dwattr $C$DW$129, DW_AT_location[DW_OP_reg12]


;*****************************************************************************
;* FUNCTION NAME: __fpclassifyf                                              *
;*                                                                           *
;*   Regs Modified     : SP,SR,r12,r13,r14,r15                               *
;*   Regs Used         : SP,SR,r12,r13,r14,r15                               *
;*   Local Frame Size  : 0 Args + 0 Auto + 0 Save = 0 byte                   *
;*****************************************************************************
__fpclassifyf:
;* --------------------------------------------------------------------------*
	.dwcfi	cfa_offset, 2
	.dwcfi	save_reg_to_mem, 16, -2
;* r15   assigned to f
$C$DW$130	.dwtag  DW_TAG_variable
	.dwattr $C$DW$130, DW_AT_name("f")
	.dwattr $C$DW$130, DW_AT_TI_symbol_name("f")
	.dwattr $C$DW$130, DW_AT_type(*$C$DW$T$16)
	.dwattr $C$DW$130, DW_AT_location[DW_OP_reg15 DW_OP_piece 2 DW_OP_reg13 DW_OP_piece 2]

        MOV.W     r12,r15               ; [] |332| 
	.dwpsn	file "C:/ti/ccsv8/tools/compiler/ti-cgt-msp430_18.1.4.LTS/include/_defs.h",line 337,column 14,is_stmt,isa 0
        MOV.W     r13,r14               ; [] |337| 
        AND.W     #32640,r14            ; [] |337| 
        CMP.W     #32640,r14            ; [] |337| 
        JNE       $C$L51                ; [] |337| 
                                          ; [] |337| 
;* --------------------------------------------------------------------------*
        AND.W     #65535,r15            ; [] |337| 
        AND.W     #127,r13              ; [] |337| 
        TST.W     r13                   ; [] |337| 
        JNE       $C$L49                ; [] |337| 
                                          ; [] |337| 
;* --------------------------------------------------------------------------*
        TST.W     r15                   ; [] |337| 
        JEQ       $C$L50                ; [] |337| 
                                          ; [] |337| 
;* --------------------------------------------------------------------------*
$C$L49:    
        MOV.W     #2,r12                ; [] |337| 
        JMP       $C$L55                ; [] |337| 
                                          ; [] |337| 
;* --------------------------------------------------------------------------*
$C$L50:    
        MOV.W     #1,r12                ; [] |337| 
        JMP       $C$L55                ; [] |337| 
                                          ; [] |337| 
;* --------------------------------------------------------------------------*
$C$L51:    
        MOV.W     r13,r12               ; [] |337| 
$C$DW$131	.dwtag  DW_TAG_TI_branch
	.dwattr $C$DW$131, DW_AT_low_pc(0x00)
	.dwattr $C$DW$131, DW_AT_name("__mspabi_srli_7")
	.dwattr $C$DW$131, DW_AT_TI_call

        CALL      #__mspabi_srli_7      ; [] |337| 
                                          ; [] |337| 
        BIT.W     #255,r12              ; [] |337| 
        JEQ       $C$L52                ; [] |337| 
                                          ; [] |337| 
;* --------------------------------------------------------------------------*
        MOV.W     #-1,r12               ; [] |337| 
        JMP       $C$L55                ; [] |337| 
                                          ; [] |337| 
;* --------------------------------------------------------------------------*
$C$L52:    
        AND.W     #65535,r15            ; [] |337| 
        AND.W     #127,r13              ; [] |337| 
        TST.W     r13                   ; [] |337| 
        JNE       $C$L53                ; [] |337| 
                                          ; [] |337| 
;* --------------------------------------------------------------------------*
        TST.W     r15                   ; [] |337| 
        JEQ       $C$L54                ; [] |337| 
                                          ; [] |337| 
;* --------------------------------------------------------------------------*
$C$L53:    
        MOV.W     #65534,r12            ; [] |337| 
        JMP       $C$L55                ; [] |337| 
                                          ; [] |337| 
;* --------------------------------------------------------------------------*
$C$L54:    
        MOV.W     #0,r12                ; [] |337| 
;* --------------------------------------------------------------------------*
$C$L55:    
	.dwpsn	file "C:/ti/ccsv8/tools/compiler/ti-cgt-msp430_18.1.4.LTS/include/_defs.h",line 346,column 1,is_stmt,isa 0
$C$DW$132	.dwtag  DW_TAG_TI_branch
	.dwattr $C$DW$132, DW_AT_low_pc(0x00)
	.dwattr $C$DW$132, DW_AT_TI_return

        RET       ; [] 
        ; [] 
	.dwattr $C$DW$128, DW_AT_TI_end_file("C:/ti/ccsv8/tools/compiler/ti-cgt-msp430_18.1.4.LTS/include/_defs.h")
	.dwattr $C$DW$128, DW_AT_TI_end_line(0x15a)
	.dwattr $C$DW$128, DW_AT_TI_end_column(0x01)
	.dwendentry
	.dwendtag $C$DW$128

	.sect	".text:__fpclassify"
	.clink
	.global	__fpclassify

$C$DW$133	.dwtag  DW_TAG_subprogram
	.dwattr $C$DW$133, DW_AT_name("__fpclassify")
	.dwattr $C$DW$133, DW_AT_low_pc(__fpclassify)
	.dwattr $C$DW$133, DW_AT_high_pc(0x00)
	.dwattr $C$DW$133, DW_AT_TI_symbol_name("__fpclassify")
	.dwattr $C$DW$133, DW_AT_external
	.dwattr $C$DW$133, DW_AT_type(*$C$DW$T$10)
	.dwattr $C$DW$133, DW_AT_TI_begin_file("C:/ti/ccsv8/tools/compiler/ti-cgt-msp430_18.1.4.LTS/include/_defs.h")
	.dwattr $C$DW$133, DW_AT_TI_begin_line(0x15c)
	.dwattr $C$DW$133, DW_AT_TI_begin_column(0x1b)
	.dwattr $C$DW$133, DW_AT_decl_file("C:/ti/ccsv8/tools/compiler/ti-cgt-msp430_18.1.4.LTS/include/_defs.h")
	.dwattr $C$DW$133, DW_AT_decl_line(0x15c)
	.dwattr $C$DW$133, DW_AT_decl_column(0x1b)
	.dwattr $C$DW$133, DW_AT_TI_max_frame_size(0x10)
	.dwpsn	file "C:/ti/ccsv8/tools/compiler/ti-cgt-msp430_18.1.4.LTS/include/_defs.h",line 349,column 1,is_stmt,address __fpclassify,isa 0

	.dwfde $C$DW$CIE, __fpclassify
$C$DW$134	.dwtag  DW_TAG_formal_parameter
	.dwattr $C$DW$134, DW_AT_name("d")
	.dwattr $C$DW$134, DW_AT_TI_symbol_name("d")
	.dwattr $C$DW$134, DW_AT_type(*$C$DW$T$17)
	.dwattr $C$DW$134, DW_AT_location[DW_OP_reg12]


;*****************************************************************************
;* FUNCTION NAME: __fpclassify                                               *
;*                                                                           *
;*   Regs Modified     : SP,SR,r4,r5,r6,r7,r8,r9,r10,r11,r12,r13,r14,r15     *
;*   Regs Used         : SP,SR,r4,r5,r6,r7,r8,r9,r10,r11,r12,r13,r14,r15     *
;*   Local Frame Size  : 0 Args + 0 Auto + 14 Save = 14 byte                 *
;*****************************************************************************
__fpclassify:
;* --------------------------------------------------------------------------*
	.dwcfi	cfa_offset, 2
	.dwcfi	save_reg_to_mem, 16, -2
        PUSH.W    r10                   ; [] 
	.dwcfi	cfa_offset, 4
	.dwcfi	save_reg_to_mem, 10, -4
        PUSH.W    r9                    ; [] 
	.dwcfi	cfa_offset, 6
	.dwcfi	save_reg_to_mem, 9, -6
        PUSH.W    r8                    ; [] 
	.dwcfi	cfa_offset, 8
	.dwcfi	save_reg_to_mem, 8, -8
        PUSH.W    r7                    ; [] 
	.dwcfi	cfa_offset, 10
	.dwcfi	save_reg_to_mem, 7, -10
        PUSH.W    r6                    ; [] 
	.dwcfi	cfa_offset, 12
	.dwcfi	save_reg_to_mem, 6, -12
        PUSH.W    r5                    ; [] 
	.dwcfi	cfa_offset, 14
	.dwcfi	save_reg_to_mem, 5, -14
        PUSH.W    r4                    ; [] 
	.dwcfi	cfa_offset, 16
	.dwcfi	save_reg_to_mem, 4, -16
;* r4    assigned to d
$C$DW$135	.dwtag  DW_TAG_variable
	.dwattr $C$DW$135, DW_AT_name("d")
	.dwattr $C$DW$135, DW_AT_TI_symbol_name("d")
	.dwattr $C$DW$135, DW_AT_type(*$C$DW$T$17)
	.dwattr $C$DW$135, DW_AT_location[DW_OP_reg4]

        MOV.W     r12,r4                ; [] |349| 
        MOV.W     r13,r5                ; [] |349| 
        MOV.W     r14,r6                ; [] |349| 
        MOV.W     r15,r7                ; [] |349| 
	.dwpsn	file "C:/ti/ccsv8/tools/compiler/ti-cgt-msp430_18.1.4.LTS/include/_defs.h",line 354,column 14,is_stmt,isa 0
        AND.W     #32752,r15            ; [] |354| 
        CMP.W     #32752,r15            ; [] |354| 
        JNE       $C$L58                ; [] |354| 
                                          ; [] |354| 
;* --------------------------------------------------------------------------*
        AND.W     #65535,r4             ; [] |354| 
        AND.W     #65535,r5             ; [] |354| 
        AND.W     #65535,r6             ; [] |354| 
        AND.W     #15,r7                ; [] |354| 
        TST.W     r7                    ; [] |354| 
        JNE       $C$L56                ; [] |354| 
                                          ; [] |354| 
;* --------------------------------------------------------------------------*
        TST.W     r6                    ; [] |354| 
        JNE       $C$L56                ; [] |354| 
                                          ; [] |354| 
;* --------------------------------------------------------------------------*
        TST.W     r5                    ; [] |354| 
        JNE       $C$L56                ; [] |354| 
                                          ; [] |354| 
;* --------------------------------------------------------------------------*
        TST.W     r4                    ; [] |354| 
        JEQ       $C$L57                ; [] |354| 
                                          ; [] |354| 
;* --------------------------------------------------------------------------*
$C$L56:    
        MOV.W     #2,r12                ; [] |354| 
        JMP       $C$L63                ; [] |354| 
                                          ; [] |354| 
;* --------------------------------------------------------------------------*
$C$L57:    
        MOV.W     #1,r12                ; [] |354| 
        JMP       $C$L63                ; [] |354| 
                                          ; [] |354| 
;* --------------------------------------------------------------------------*
$C$L58:    
        MOV.W     r4,r8                 ; [] |354| 
        MOV.W     r5,r9                 ; [] |354| 
        MOV.W     r6,r10                ; [] |354| 
        MOV.W     r7,r11                ; [] |354| 
        MOV.W     #52,r12               ; [] |354| 
$C$DW$136	.dwtag  DW_TAG_TI_branch
	.dwattr $C$DW$136, DW_AT_low_pc(0x00)
	.dwattr $C$DW$136, DW_AT_name("__mspabi_srlll")
	.dwattr $C$DW$136, DW_AT_TI_call

        CALL      #__mspabi_srlll       ; [] |354| 
                                          ; [] |354| 
        AND.W     #2047,r12             ; [] |354| 
        AND.W     #0,r13                ; [] |354| 
        AND.W     #0,r14                ; [] |354| 
        AND.W     #0,r15                ; [] |354| 
        TST.W     r15                   ; [] |354| 
        JNE       $C$L59                ; [] |354| 
                                          ; [] |354| 
;* --------------------------------------------------------------------------*
        TST.W     r14                   ; [] |354| 
        JNE       $C$L59                ; [] |354| 
                                          ; [] |354| 
;* --------------------------------------------------------------------------*
        TST.W     r13                   ; [] |354| 
        JNE       $C$L59                ; [] |354| 
                                          ; [] |354| 
;* --------------------------------------------------------------------------*
        TST.W     r12                   ; [] |354| 
        JEQ       $C$L60                ; [] |354| 
                                          ; [] |354| 
;* --------------------------------------------------------------------------*
$C$L59:    
        MOV.W     #-1,r12               ; [] |354| 
        JMP       $C$L63                ; [] |354| 
                                          ; [] |354| 
;* --------------------------------------------------------------------------*
$C$L60:    
        AND.W     #65535,r4             ; [] |354| 
        AND.W     #65535,r5             ; [] |354| 
        AND.W     #65535,r6             ; [] |354| 
        AND.W     #15,r7                ; [] |354| 
        TST.W     r7                    ; [] |354| 
        JNE       $C$L61                ; [] |354| 
                                          ; [] |354| 
;* --------------------------------------------------------------------------*
        TST.W     r6                    ; [] |354| 
        JNE       $C$L61                ; [] |354| 
                                          ; [] |354| 
;* --------------------------------------------------------------------------*
        TST.W     r5                    ; [] |354| 
        JNE       $C$L61                ; [] |354| 
                                          ; [] |354| 
;* --------------------------------------------------------------------------*
        TST.W     r4                    ; [] |354| 
        JEQ       $C$L62                ; [] |354| 
                                          ; [] |354| 
;* --------------------------------------------------------------------------*
$C$L61:    
        MOV.W     #65534,r12            ; [] |354| 
        JMP       $C$L63                ; [] |354| 
                                          ; [] |354| 
;* --------------------------------------------------------------------------*
$C$L62:    
        MOV.W     #0,r12                ; [] |354| 
;* --------------------------------------------------------------------------*
$C$L63:    
	.dwpsn	file "C:/ti/ccsv8/tools/compiler/ti-cgt-msp430_18.1.4.LTS/include/_defs.h",line 363,column 1,is_stmt,isa 0
$C$DW$137	.dwtag  DW_TAG_TI_branch
	.dwattr $C$DW$137, DW_AT_low_pc(0x00)
	.dwattr $C$DW$137, DW_AT_TI_return

        BR        #__mspabi_func_epilog_7 ; [] 
        ; [] 
	.dwattr $C$DW$133, DW_AT_TI_end_file("C:/ti/ccsv8/tools/compiler/ti-cgt-msp430_18.1.4.LTS/include/_defs.h")
	.dwattr $C$DW$133, DW_AT_TI_end_line(0x16b)
	.dwattr $C$DW$133, DW_AT_TI_end_column(0x01)
	.dwendentry
	.dwendtag $C$DW$133

;*****************************************************************************
;* UNDEFINED EXTERNAL REFERENCES                                             *
;*****************************************************************************
	.global	IFG2
	.global	DCOCTL
	.global	BCSCTL1
	.global	P1IN
	.global	P1OUT
	.global	P1DIR
	.global	P1SEL
	.global	P1SEL2
	.global	UCA0TXBUF
	.global	WDTCTL
	.global	CALDCO_1MHZ
	.global	CALBC1_1MHZ
	.global	pow
	.global	memset
	.global	__mspabi_remi
	.global	__mspabi_divi
	.global	__mspabi_func_epilog_5
	.global	__mspabi_fltid
	.global	__mspabi_fixfi
	.global	__mspabi_fltif
	.global	__mspabi_subf
	.global	__mspabi_cvtfd
	.global	__mspabi_mpyd
	.global	__mspabi_cvtdf
	.global	__mspabi_func_epilog_7
	.global	__mspabi_divd
	.global	__mspabi_fltuld
	.global	__mspabi_srlll
	.global	__mspabi_srli_7
;*****************************************************************************
;* SECTION GROUPS                                                            *
;*****************************************************************************
	.group    "__fpclassify", 1
	.gmember  ".text:__fpclassify"
	.endgroup
	.group    "__fpclassifyf", 1
	.gmember  ".text:__fpclassifyf"
	.endgroup
	.group    "__fpclassifyl", 1
	.gmember  ".text:__fpclassifyl"
	.endgroup
	.group    "__isfinite", 1
	.gmember  ".text:__isfinite"
	.endgroup
	.group    "__isfinitef", 1
	.gmember  ".text:__isfinitef"
	.endgroup
	.group    "__isfinitel", 1
	.gmember  ".text:__isfinitel"
	.endgroup
	.group    "__isinf", 1
	.gmember  ".text:__isinf"
	.endgroup
	.group    "__isinff", 1
	.gmember  ".text:__isinff"
	.endgroup
	.group    "__isinfl", 1
	.gmember  ".text:__isinfl"
	.endgroup
	.group    "__isnan", 1
	.gmember  ".text:__isnan"
	.endgroup
	.group    "__isnanf", 1
	.gmember  ".text:__isnanf"
	.endgroup
	.group    "__isnanl", 1
	.gmember  ".text:__isnanl"
	.endgroup
	.group    "__isnormal", 1
	.gmember  ".text:__isnormal"
	.endgroup
	.group    "__isnormalf", 1
	.gmember  ".text:__isnormalf"
	.endgroup
	.group    "__isnormall", 1
	.gmember  ".text:__isnormall"
	.endgroup
	.group    "__signbit", 1
	.gmember  ".text:__signbit"
	.endgroup
	.group    "__signbitf", 1
	.gmember  ".text:__signbitf"
	.endgroup
	.group    "__signbitl", 1
	.gmember  ".text:__signbitl"
	.endgroup


;******************************************************************************
;* BUILD ATTRIBUTES                                                           *
;******************************************************************************
	.battr "TI", Tag_File, 1, Tag_LPM_INFO(1)
	.battr "TI", Tag_File, 1, Tag_PORTS_INIT_INFO("012345678901ABCDEFGHIJ01110000000000000000000100000000000000000000")
	.battr "TI", Tag_File, 1, Tag_LEA_INFO(1)
	.battr "TI", Tag_File, 1, Tag_HW_MPY32_INFO(1)
	.battr "TI", Tag_File, 1, Tag_HW_MPY_ISR_INFO(1)
	.battr "TI", Tag_File, 1, Tag_HW_MPY_INLINE_INFO(1)
	.battr "mspabi", Tag_File, 1, Tag_enum_size(3)

;******************************************************************************
;* TYPE INFORMATION                                                           *
;******************************************************************************

$C$DW$T$21	.dwtag  DW_TAG_structure_type
	.dwattr $C$DW$T$21, DW_AT_byte_size(0x10)
$C$DW$138	.dwtag  DW_TAG_member
	.dwattr $C$DW$138, DW_AT_type(*$C$DW$T$14)
	.dwattr $C$DW$138, DW_AT_name("__max_align1")
	.dwattr $C$DW$138, DW_AT_TI_symbol_name("__max_align1")
	.dwattr $C$DW$138, DW_AT_data_member_location[DW_OP_plus_uconst 0x0]
	.dwattr $C$DW$138, DW_AT_accessibility(DW_ACCESS_public)
	.dwattr $C$DW$138, DW_AT_decl_file("C:/ti/ccsv8/tools/compiler/ti-cgt-msp430_18.1.4.LTS/include/sys/_types.h")
	.dwattr $C$DW$138, DW_AT_decl_line(0x70)
	.dwattr $C$DW$138, DW_AT_decl_column(0x0c)

$C$DW$139	.dwtag  DW_TAG_member
	.dwattr $C$DW$139, DW_AT_type(*$C$DW$T$18)
	.dwattr $C$DW$139, DW_AT_name("__max_align2")
	.dwattr $C$DW$139, DW_AT_TI_symbol_name("__max_align2")
	.dwattr $C$DW$139, DW_AT_data_member_location[DW_OP_plus_uconst 0x8]
	.dwattr $C$DW$139, DW_AT_accessibility(DW_ACCESS_public)
	.dwattr $C$DW$139, DW_AT_decl_file("C:/ti/ccsv8/tools/compiler/ti-cgt-msp430_18.1.4.LTS/include/sys/_types.h")
	.dwattr $C$DW$139, DW_AT_decl_line(0x71)
	.dwattr $C$DW$139, DW_AT_decl_column(0x0e)

	.dwattr $C$DW$T$21, DW_AT_decl_file("C:/ti/ccsv8/tools/compiler/ti-cgt-msp430_18.1.4.LTS/include/sys/_types.h")
	.dwattr $C$DW$T$21, DW_AT_decl_line(0x6f)
	.dwattr $C$DW$T$21, DW_AT_decl_column(0x10)
	.dwendtag $C$DW$T$21

$C$DW$T$24	.dwtag  DW_TAG_typedef
	.dwattr $C$DW$T$24, DW_AT_name("__max_align_t")
	.dwattr $C$DW$T$24, DW_AT_type(*$C$DW$T$21)
	.dwattr $C$DW$T$24, DW_AT_language(DW_LANG_C)
	.dwattr $C$DW$T$24, DW_AT_decl_file("C:/ti/ccsv8/tools/compiler/ti-cgt-msp430_18.1.4.LTS/include/sys/_types.h")
	.dwattr $C$DW$T$24, DW_AT_decl_line(0x72)
	.dwattr $C$DW$T$24, DW_AT_decl_column(0x03)

$C$DW$T$2	.dwtag  DW_TAG_unspecified_type
	.dwattr $C$DW$T$2, DW_AT_name("void")

$C$DW$T$3	.dwtag  DW_TAG_pointer_type
	.dwattr $C$DW$T$3, DW_AT_type(*$C$DW$T$2)
	.dwattr $C$DW$T$3, DW_AT_address_class(0x10)

$C$DW$T$4	.dwtag  DW_TAG_base_type
	.dwattr $C$DW$T$4, DW_AT_encoding(DW_ATE_boolean)
	.dwattr $C$DW$T$4, DW_AT_name("bool")
	.dwattr $C$DW$T$4, DW_AT_byte_size(0x01)

$C$DW$T$5	.dwtag  DW_TAG_base_type
	.dwattr $C$DW$T$5, DW_AT_encoding(DW_ATE_signed_char)
	.dwattr $C$DW$T$5, DW_AT_name("signed char")
	.dwattr $C$DW$T$5, DW_AT_byte_size(0x01)

$C$DW$T$34	.dwtag  DW_TAG_typedef
	.dwattr $C$DW$T$34, DW_AT_name("__int8_t")
	.dwattr $C$DW$T$34, DW_AT_type(*$C$DW$T$5)
	.dwattr $C$DW$T$34, DW_AT_language(DW_LANG_C)
	.dwattr $C$DW$T$34, DW_AT_decl_file("C:/ti/ccsv8/tools/compiler/ti-cgt-msp430_18.1.4.LTS/include/machine/_types.h")
	.dwattr $C$DW$T$34, DW_AT_decl_line(0x36)
	.dwattr $C$DW$T$34, DW_AT_decl_column(0x16)

$C$DW$T$35	.dwtag  DW_TAG_typedef
	.dwattr $C$DW$T$35, DW_AT_name("__int_least8_t")
	.dwattr $C$DW$T$35, DW_AT_type(*$C$DW$T$34)
	.dwattr $C$DW$T$35, DW_AT_language(DW_LANG_C)
	.dwattr $C$DW$T$35, DW_AT_decl_file("C:/ti/ccsv8/tools/compiler/ti-cgt-msp430_18.1.4.LTS/include/machine/_types.h")
	.dwattr $C$DW$T$35, DW_AT_decl_line(0x5a)
	.dwattr $C$DW$T$35, DW_AT_decl_column(0x12)

$C$DW$T$36	.dwtag  DW_TAG_typedef
	.dwattr $C$DW$T$36, DW_AT_name("int_least8_t")
	.dwattr $C$DW$T$36, DW_AT_type(*$C$DW$T$35)
	.dwattr $C$DW$T$36, DW_AT_language(DW_LANG_C)
	.dwattr $C$DW$T$36, DW_AT_decl_file("C:/ti/ccsv8/tools/compiler/ti-cgt-msp430_18.1.4.LTS/include/sys/stdint.h")
	.dwattr $C$DW$T$36, DW_AT_decl_line(0x28)
	.dwattr $C$DW$T$36, DW_AT_decl_column(0x19)

$C$DW$T$37	.dwtag  DW_TAG_typedef
	.dwattr $C$DW$T$37, DW_AT_name("int8_t")
	.dwattr $C$DW$T$37, DW_AT_type(*$C$DW$T$34)
	.dwattr $C$DW$T$37, DW_AT_language(DW_LANG_C)
	.dwattr $C$DW$T$37, DW_AT_decl_file("C:/ti/ccsv8/tools/compiler/ti-cgt-msp430_18.1.4.LTS/include/sys/_stdint.h")
	.dwattr $C$DW$T$37, DW_AT_decl_line(0x24)
	.dwattr $C$DW$T$37, DW_AT_decl_column(0x13)

$C$DW$T$6	.dwtag  DW_TAG_base_type
	.dwattr $C$DW$T$6, DW_AT_encoding(DW_ATE_unsigned_char)
	.dwattr $C$DW$T$6, DW_AT_name("unsigned char")
	.dwattr $C$DW$T$6, DW_AT_byte_size(0x01)

$C$DW$T$22	.dwtag  DW_TAG_pointer_type
	.dwattr $C$DW$T$22, DW_AT_type(*$C$DW$T$6)
	.dwattr $C$DW$T$22, DW_AT_address_class(0x10)

$C$DW$T$38	.dwtag  DW_TAG_volatile_type
	.dwattr $C$DW$T$38, DW_AT_type(*$C$DW$T$6)

$C$DW$T$43	.dwtag  DW_TAG_typedef
	.dwattr $C$DW$T$43, DW_AT_name("__uint8_t")
	.dwattr $C$DW$T$43, DW_AT_type(*$C$DW$T$6)
	.dwattr $C$DW$T$43, DW_AT_language(DW_LANG_C)
	.dwattr $C$DW$T$43, DW_AT_decl_file("C:/ti/ccsv8/tools/compiler/ti-cgt-msp430_18.1.4.LTS/include/machine/_types.h")
	.dwattr $C$DW$T$43, DW_AT_decl_line(0x37)
	.dwattr $C$DW$T$43, DW_AT_decl_column(0x18)

$C$DW$T$44	.dwtag  DW_TAG_typedef
	.dwattr $C$DW$T$44, DW_AT_name("__sa_family_t")
	.dwattr $C$DW$T$44, DW_AT_type(*$C$DW$T$43)
	.dwattr $C$DW$T$44, DW_AT_language(DW_LANG_C)
	.dwattr $C$DW$T$44, DW_AT_decl_file("C:/ti/ccsv8/tools/compiler/ti-cgt-msp430_18.1.4.LTS/include/sys/_types.h")
	.dwattr $C$DW$T$44, DW_AT_decl_line(0x43)
	.dwattr $C$DW$T$44, DW_AT_decl_column(0x13)

$C$DW$T$45	.dwtag  DW_TAG_typedef
	.dwattr $C$DW$T$45, DW_AT_name("__uint_least8_t")
	.dwattr $C$DW$T$45, DW_AT_type(*$C$DW$T$43)
	.dwattr $C$DW$T$45, DW_AT_language(DW_LANG_C)
	.dwattr $C$DW$T$45, DW_AT_decl_file("C:/ti/ccsv8/tools/compiler/ti-cgt-msp430_18.1.4.LTS/include/machine/_types.h")
	.dwattr $C$DW$T$45, DW_AT_decl_line(0x74)
	.dwattr $C$DW$T$45, DW_AT_decl_column(0x13)

$C$DW$T$46	.dwtag  DW_TAG_typedef
	.dwattr $C$DW$T$46, DW_AT_name("uint_least8_t")
	.dwattr $C$DW$T$46, DW_AT_type(*$C$DW$T$45)
	.dwattr $C$DW$T$46, DW_AT_language(DW_LANG_C)
	.dwattr $C$DW$T$46, DW_AT_decl_file("C:/ti/ccsv8/tools/compiler/ti-cgt-msp430_18.1.4.LTS/include/sys/stdint.h")
	.dwattr $C$DW$T$46, DW_AT_decl_line(0x2d)
	.dwattr $C$DW$T$46, DW_AT_decl_column(0x1a)

$C$DW$T$47	.dwtag  DW_TAG_typedef
	.dwattr $C$DW$T$47, DW_AT_name("uint8_t")
	.dwattr $C$DW$T$47, DW_AT_type(*$C$DW$T$43)
	.dwattr $C$DW$T$47, DW_AT_language(DW_LANG_C)
	.dwattr $C$DW$T$47, DW_AT_decl_file("C:/ti/ccsv8/tools/compiler/ti-cgt-msp430_18.1.4.LTS/include/sys/_stdint.h")
	.dwattr $C$DW$T$47, DW_AT_decl_line(0x38)
	.dwattr $C$DW$T$47, DW_AT_decl_column(0x14)

$C$DW$T$7	.dwtag  DW_TAG_base_type
	.dwattr $C$DW$T$7, DW_AT_encoding(DW_ATE_signed_char)
	.dwattr $C$DW$T$7, DW_AT_name("wchar_t")
	.dwattr $C$DW$T$7, DW_AT_byte_size(0x02)

$C$DW$T$8	.dwtag  DW_TAG_base_type
	.dwattr $C$DW$T$8, DW_AT_encoding(DW_ATE_signed)
	.dwattr $C$DW$T$8, DW_AT_name("short")
	.dwattr $C$DW$T$8, DW_AT_byte_size(0x02)

$C$DW$T$9	.dwtag  DW_TAG_base_type
	.dwattr $C$DW$T$9, DW_AT_encoding(DW_ATE_unsigned)
	.dwattr $C$DW$T$9, DW_AT_name("unsigned short")
	.dwattr $C$DW$T$9, DW_AT_byte_size(0x02)

$C$DW$T$10	.dwtag  DW_TAG_base_type
	.dwattr $C$DW$T$10, DW_AT_encoding(DW_ATE_signed)
	.dwattr $C$DW$T$10, DW_AT_name("int")
	.dwattr $C$DW$T$10, DW_AT_byte_size(0x02)

$C$DW$T$48	.dwtag  DW_TAG_typedef
	.dwattr $C$DW$T$48, DW_AT_name("_Mbstatet")
	.dwattr $C$DW$T$48, DW_AT_type(*$C$DW$T$10)
	.dwattr $C$DW$T$48, DW_AT_language(DW_LANG_C)
	.dwattr $C$DW$T$48, DW_AT_decl_file("C:/ti/ccsv8/tools/compiler/ti-cgt-msp430_18.1.4.LTS/include/sys/_types.h")
	.dwattr $C$DW$T$48, DW_AT_decl_line(0x84)
	.dwattr $C$DW$T$48, DW_AT_decl_column(0x0d)

$C$DW$T$49	.dwtag  DW_TAG_typedef
	.dwattr $C$DW$T$49, DW_AT_name("__mbstate_t")
	.dwattr $C$DW$T$49, DW_AT_type(*$C$DW$T$48)
	.dwattr $C$DW$T$49, DW_AT_language(DW_LANG_C)
	.dwattr $C$DW$T$49, DW_AT_decl_file("C:/ti/ccsv8/tools/compiler/ti-cgt-msp430_18.1.4.LTS/include/sys/_types.h")
	.dwattr $C$DW$T$49, DW_AT_decl_line(0x87)
	.dwattr $C$DW$T$49, DW_AT_decl_column(0x13)

$C$DW$T$50	.dwtag  DW_TAG_typedef
	.dwattr $C$DW$T$50, DW_AT_name("__accmode_t")
	.dwattr $C$DW$T$50, DW_AT_type(*$C$DW$T$10)
	.dwattr $C$DW$T$50, DW_AT_language(DW_LANG_C)
	.dwattr $C$DW$T$50, DW_AT_decl_file("C:/ti/ccsv8/tools/compiler/ti-cgt-msp430_18.1.4.LTS/include/sys/_types.h")
	.dwattr $C$DW$T$50, DW_AT_decl_line(0x3a)
	.dwattr $C$DW$T$50, DW_AT_decl_column(0x0e)

$C$DW$T$57	.dwtag  DW_TAG_typedef
	.dwattr $C$DW$T$57, DW_AT_name("__cpulevel_t")
	.dwattr $C$DW$T$57, DW_AT_type(*$C$DW$T$10)
	.dwattr $C$DW$T$57, DW_AT_language(DW_LANG_C)
	.dwattr $C$DW$T$57, DW_AT_decl_file("C:/ti/ccsv8/tools/compiler/ti-cgt-msp430_18.1.4.LTS/include/sys/_types.h")
	.dwattr $C$DW$T$57, DW_AT_decl_line(0x4b)
	.dwattr $C$DW$T$57, DW_AT_decl_column(0x0e)

$C$DW$T$58	.dwtag  DW_TAG_typedef
	.dwattr $C$DW$T$58, DW_AT_name("__cpusetid_t")
	.dwattr $C$DW$T$58, DW_AT_type(*$C$DW$T$10)
	.dwattr $C$DW$T$58, DW_AT_language(DW_LANG_C)
	.dwattr $C$DW$T$58, DW_AT_decl_file("C:/ti/ccsv8/tools/compiler/ti-cgt-msp430_18.1.4.LTS/include/sys/_types.h")
	.dwattr $C$DW$T$58, DW_AT_decl_line(0x4c)
	.dwattr $C$DW$T$58, DW_AT_decl_column(0x0e)

$C$DW$T$59	.dwtag  DW_TAG_typedef
	.dwattr $C$DW$T$59, DW_AT_name("__cpuwhich_t")
	.dwattr $C$DW$T$59, DW_AT_type(*$C$DW$T$10)
	.dwattr $C$DW$T$59, DW_AT_language(DW_LANG_C)
	.dwattr $C$DW$T$59, DW_AT_decl_file("C:/ti/ccsv8/tools/compiler/ti-cgt-msp430_18.1.4.LTS/include/sys/_types.h")
	.dwattr $C$DW$T$59, DW_AT_decl_line(0x4a)
	.dwattr $C$DW$T$59, DW_AT_decl_column(0x0e)

$C$DW$T$60	.dwtag  DW_TAG_typedef
	.dwattr $C$DW$T$60, DW_AT_name("__ct_rune_t")
	.dwattr $C$DW$T$60, DW_AT_type(*$C$DW$T$10)
	.dwattr $C$DW$T$60, DW_AT_language(DW_LANG_C)
	.dwattr $C$DW$T$60, DW_AT_decl_file("C:/ti/ccsv8/tools/compiler/ti-cgt-msp430_18.1.4.LTS/include/sys/_types.h")
	.dwattr $C$DW$T$60, DW_AT_decl_line(0x60)
	.dwattr $C$DW$T$60, DW_AT_decl_column(0x0e)

$C$DW$T$61	.dwtag  DW_TAG_typedef
	.dwattr $C$DW$T$61, DW_AT_name("__rune_t")
	.dwattr $C$DW$T$61, DW_AT_type(*$C$DW$T$60)
	.dwattr $C$DW$T$61, DW_AT_language(DW_LANG_C)
	.dwattr $C$DW$T$61, DW_AT_decl_file("C:/ti/ccsv8/tools/compiler/ti-cgt-msp430_18.1.4.LTS/include/sys/_types.h")
	.dwattr $C$DW$T$61, DW_AT_decl_line(0x61)
	.dwattr $C$DW$T$61, DW_AT_decl_column(0x15)

$C$DW$T$62	.dwtag  DW_TAG_typedef
	.dwattr $C$DW$T$62, DW_AT_name("__wint_t")
	.dwattr $C$DW$T$62, DW_AT_type(*$C$DW$T$60)
	.dwattr $C$DW$T$62, DW_AT_language(DW_LANG_C)
	.dwattr $C$DW$T$62, DW_AT_decl_file("C:/ti/ccsv8/tools/compiler/ti-cgt-msp430_18.1.4.LTS/include/sys/_types.h")
	.dwattr $C$DW$T$62, DW_AT_decl_line(0x62)
	.dwattr $C$DW$T$62, DW_AT_decl_column(0x15)

$C$DW$T$63	.dwtag  DW_TAG_typedef
	.dwattr $C$DW$T$63, DW_AT_name("__int16_t")
	.dwattr $C$DW$T$63, DW_AT_type(*$C$DW$T$10)
	.dwattr $C$DW$T$63, DW_AT_language(DW_LANG_C)
	.dwattr $C$DW$T$63, DW_AT_decl_file("C:/ti/ccsv8/tools/compiler/ti-cgt-msp430_18.1.4.LTS/include/machine/_types.h")
	.dwattr $C$DW$T$63, DW_AT_decl_line(0x38)
	.dwattr $C$DW$T$63, DW_AT_decl_column(0x0f)

$C$DW$T$64	.dwtag  DW_TAG_typedef
	.dwattr $C$DW$T$64, DW_AT_name("__int_fast16_t")
	.dwattr $C$DW$T$64, DW_AT_type(*$C$DW$T$63)
	.dwattr $C$DW$T$64, DW_AT_language(DW_LANG_C)
	.dwattr $C$DW$T$64, DW_AT_decl_file("C:/ti/ccsv8/tools/compiler/ti-cgt-msp430_18.1.4.LTS/include/machine/_types.h")
	.dwattr $C$DW$T$64, DW_AT_decl_line(0x57)
	.dwattr $C$DW$T$64, DW_AT_decl_column(0x13)

$C$DW$T$65	.dwtag  DW_TAG_typedef
	.dwattr $C$DW$T$65, DW_AT_name("int_fast16_t")
	.dwattr $C$DW$T$65, DW_AT_type(*$C$DW$T$64)
	.dwattr $C$DW$T$65, DW_AT_language(DW_LANG_C)
	.dwattr $C$DW$T$65, DW_AT_decl_file("C:/ti/ccsv8/tools/compiler/ti-cgt-msp430_18.1.4.LTS/include/sys/stdint.h")
	.dwattr $C$DW$T$65, DW_AT_decl_line(0x33)
	.dwattr $C$DW$T$65, DW_AT_decl_column(0x19)

$C$DW$T$66	.dwtag  DW_TAG_typedef
	.dwattr $C$DW$T$66, DW_AT_name("__int_fast8_t")
	.dwattr $C$DW$T$66, DW_AT_type(*$C$DW$T$63)
	.dwattr $C$DW$T$66, DW_AT_language(DW_LANG_C)
	.dwattr $C$DW$T$66, DW_AT_decl_file("C:/ti/ccsv8/tools/compiler/ti-cgt-msp430_18.1.4.LTS/include/machine/_types.h")
	.dwattr $C$DW$T$66, DW_AT_decl_line(0x56)
	.dwattr $C$DW$T$66, DW_AT_decl_column(0x13)

$C$DW$T$67	.dwtag  DW_TAG_typedef
	.dwattr $C$DW$T$67, DW_AT_name("int_fast8_t")
	.dwattr $C$DW$T$67, DW_AT_type(*$C$DW$T$66)
	.dwattr $C$DW$T$67, DW_AT_language(DW_LANG_C)
	.dwattr $C$DW$T$67, DW_AT_decl_file("C:/ti/ccsv8/tools/compiler/ti-cgt-msp430_18.1.4.LTS/include/sys/stdint.h")
	.dwattr $C$DW$T$67, DW_AT_decl_line(0x32)
	.dwattr $C$DW$T$67, DW_AT_decl_column(0x18)

$C$DW$T$68	.dwtag  DW_TAG_typedef
	.dwattr $C$DW$T$68, DW_AT_name("__int_least16_t")
	.dwattr $C$DW$T$68, DW_AT_type(*$C$DW$T$63)
	.dwattr $C$DW$T$68, DW_AT_language(DW_LANG_C)
	.dwattr $C$DW$T$68, DW_AT_decl_file("C:/ti/ccsv8/tools/compiler/ti-cgt-msp430_18.1.4.LTS/include/machine/_types.h")
	.dwattr $C$DW$T$68, DW_AT_decl_line(0x5b)
	.dwattr $C$DW$T$68, DW_AT_decl_column(0x13)

$C$DW$T$69	.dwtag  DW_TAG_typedef
	.dwattr $C$DW$T$69, DW_AT_name("int_least16_t")
	.dwattr $C$DW$T$69, DW_AT_type(*$C$DW$T$68)
	.dwattr $C$DW$T$69, DW_AT_language(DW_LANG_C)
	.dwattr $C$DW$T$69, DW_AT_decl_file("C:/ti/ccsv8/tools/compiler/ti-cgt-msp430_18.1.4.LTS/include/sys/stdint.h")
	.dwattr $C$DW$T$69, DW_AT_decl_line(0x29)
	.dwattr $C$DW$T$69, DW_AT_decl_column(0x1a)

$C$DW$T$70	.dwtag  DW_TAG_typedef
	.dwattr $C$DW$T$70, DW_AT_name("__intptr_t")
	.dwattr $C$DW$T$70, DW_AT_type(*$C$DW$T$63)
	.dwattr $C$DW$T$70, DW_AT_language(DW_LANG_C)
	.dwattr $C$DW$T$70, DW_AT_decl_file("C:/ti/ccsv8/tools/compiler/ti-cgt-msp430_18.1.4.LTS/include/machine/_types.h")
	.dwattr $C$DW$T$70, DW_AT_decl_line(0x53)
	.dwattr $C$DW$T$70, DW_AT_decl_column(0x19)

$C$DW$T$71	.dwtag  DW_TAG_typedef
	.dwattr $C$DW$T$71, DW_AT_name("intptr_t")
	.dwattr $C$DW$T$71, DW_AT_type(*$C$DW$T$70)
	.dwattr $C$DW$T$71, DW_AT_language(DW_LANG_C)
	.dwattr $C$DW$T$71, DW_AT_decl_file("C:/ti/ccsv8/tools/compiler/ti-cgt-msp430_18.1.4.LTS/include/sys/_stdint.h")
	.dwattr $C$DW$T$71, DW_AT_decl_line(0x4c)
	.dwattr $C$DW$T$71, DW_AT_decl_column(0x15)

$C$DW$T$72	.dwtag  DW_TAG_typedef
	.dwattr $C$DW$T$72, DW_AT_name("int16_t")
	.dwattr $C$DW$T$72, DW_AT_type(*$C$DW$T$63)
	.dwattr $C$DW$T$72, DW_AT_language(DW_LANG_C)
	.dwattr $C$DW$T$72, DW_AT_decl_file("C:/ti/ccsv8/tools/compiler/ti-cgt-msp430_18.1.4.LTS/include/sys/_stdint.h")
	.dwattr $C$DW$T$72, DW_AT_decl_line(0x29)
	.dwattr $C$DW$T$72, DW_AT_decl_column(0x14)

$C$DW$T$73	.dwtag  DW_TAG_typedef
	.dwattr $C$DW$T$73, DW_AT_name("__nl_item")
	.dwattr $C$DW$T$73, DW_AT_type(*$C$DW$T$10)
	.dwattr $C$DW$T$73, DW_AT_language(DW_LANG_C)
	.dwattr $C$DW$T$73, DW_AT_decl_file("C:/ti/ccsv8/tools/compiler/ti-cgt-msp430_18.1.4.LTS/include/sys/_types.h")
	.dwattr $C$DW$T$73, DW_AT_decl_line(0x3b)
	.dwattr $C$DW$T$73, DW_AT_decl_column(0x0e)

$C$DW$T$74	.dwtag  DW_TAG_typedef
	.dwattr $C$DW$T$74, DW_AT_name("__ptrdiff_t")
	.dwattr $C$DW$T$74, DW_AT_type(*$C$DW$T$10)
	.dwattr $C$DW$T$74, DW_AT_language(DW_LANG_C)
	.dwattr $C$DW$T$74, DW_AT_decl_file("C:/ti/ccsv8/tools/compiler/ti-cgt-msp430_18.1.4.LTS/include/machine/_types.h")
	.dwattr $C$DW$T$74, DW_AT_decl_line(0x5e)
	.dwattr $C$DW$T$74, DW_AT_decl_column(0x1c)

$C$DW$T$11	.dwtag  DW_TAG_base_type
	.dwattr $C$DW$T$11, DW_AT_encoding(DW_ATE_unsigned)
	.dwattr $C$DW$T$11, DW_AT_name("unsigned int")
	.dwattr $C$DW$T$11, DW_AT_byte_size(0x02)

$C$DW$T$75	.dwtag  DW_TAG_typedef
	.dwattr $C$DW$T$75, DW_AT_name("___wchar_t")
	.dwattr $C$DW$T$75, DW_AT_type(*$C$DW$T$11)
	.dwattr $C$DW$T$75, DW_AT_language(DW_LANG_C)
	.dwattr $C$DW$T$75, DW_AT_decl_file("C:/ti/ccsv8/tools/compiler/ti-cgt-msp430_18.1.4.LTS/include/machine/_types.h")
	.dwattr $C$DW$T$75, DW_AT_decl_line(0x7d)
	.dwattr $C$DW$T$75, DW_AT_decl_column(0x1a)

$C$DW$T$76	.dwtag  DW_TAG_volatile_type
	.dwattr $C$DW$T$76, DW_AT_type(*$C$DW$T$11)

$C$DW$T$77	.dwtag  DW_TAG_typedef
	.dwattr $C$DW$T$77, DW_AT_name("__size_t")
	.dwattr $C$DW$T$77, DW_AT_type(*$C$DW$T$11)
	.dwattr $C$DW$T$77, DW_AT_language(DW_LANG_C)
	.dwattr $C$DW$T$77, DW_AT_decl_file("C:/ti/ccsv8/tools/compiler/ti-cgt-msp430_18.1.4.LTS/include/machine/_types.h")
	.dwattr $C$DW$T$77, DW_AT_decl_line(0x61)
	.dwattr $C$DW$T$77, DW_AT_decl_column(0x19)

$C$DW$T$78	.dwtag  DW_TAG_typedef
	.dwattr $C$DW$T$78, DW_AT_name("__uint16_t")
	.dwattr $C$DW$T$78, DW_AT_type(*$C$DW$T$11)
	.dwattr $C$DW$T$78, DW_AT_language(DW_LANG_C)
	.dwattr $C$DW$T$78, DW_AT_decl_file("C:/ti/ccsv8/tools/compiler/ti-cgt-msp430_18.1.4.LTS/include/machine/_types.h")
	.dwattr $C$DW$T$78, DW_AT_decl_line(0x39)
	.dwattr $C$DW$T$78, DW_AT_decl_column(0x17)

$C$DW$T$79	.dwtag  DW_TAG_typedef
	.dwattr $C$DW$T$79, DW_AT_name("__mode_t")
	.dwattr $C$DW$T$79, DW_AT_type(*$C$DW$T$78)
	.dwattr $C$DW$T$79, DW_AT_language(DW_LANG_C)
	.dwattr $C$DW$T$79, DW_AT_decl_file("C:/ti/ccsv8/tools/compiler/ti-cgt-msp430_18.1.4.LTS/include/sys/_types.h")
	.dwattr $C$DW$T$79, DW_AT_decl_line(0x39)
	.dwattr $C$DW$T$79, DW_AT_decl_column(0x14)

$C$DW$T$80	.dwtag  DW_TAG_typedef
	.dwattr $C$DW$T$80, DW_AT_name("__uint_fast16_t")
	.dwattr $C$DW$T$80, DW_AT_type(*$C$DW$T$78)
	.dwattr $C$DW$T$80, DW_AT_language(DW_LANG_C)
	.dwattr $C$DW$T$80, DW_AT_decl_file("C:/ti/ccsv8/tools/compiler/ti-cgt-msp430_18.1.4.LTS/include/machine/_types.h")
	.dwattr $C$DW$T$80, DW_AT_decl_line(0x71)
	.dwattr $C$DW$T$80, DW_AT_decl_column(0x14)

$C$DW$T$81	.dwtag  DW_TAG_typedef
	.dwattr $C$DW$T$81, DW_AT_name("uint_fast16_t")
	.dwattr $C$DW$T$81, DW_AT_type(*$C$DW$T$80)
	.dwattr $C$DW$T$81, DW_AT_language(DW_LANG_C)
	.dwattr $C$DW$T$81, DW_AT_decl_file("C:/ti/ccsv8/tools/compiler/ti-cgt-msp430_18.1.4.LTS/include/sys/stdint.h")
	.dwattr $C$DW$T$81, DW_AT_decl_line(0x38)
	.dwattr $C$DW$T$81, DW_AT_decl_column(0x1a)

$C$DW$T$82	.dwtag  DW_TAG_typedef
	.dwattr $C$DW$T$82, DW_AT_name("__uint_fast8_t")
	.dwattr $C$DW$T$82, DW_AT_type(*$C$DW$T$78)
	.dwattr $C$DW$T$82, DW_AT_language(DW_LANG_C)
	.dwattr $C$DW$T$82, DW_AT_decl_file("C:/ti/ccsv8/tools/compiler/ti-cgt-msp430_18.1.4.LTS/include/machine/_types.h")
	.dwattr $C$DW$T$82, DW_AT_decl_line(0x70)
	.dwattr $C$DW$T$82, DW_AT_decl_column(0x14)

$C$DW$T$83	.dwtag  DW_TAG_typedef
	.dwattr $C$DW$T$83, DW_AT_name("uint_fast8_t")
	.dwattr $C$DW$T$83, DW_AT_type(*$C$DW$T$82)
	.dwattr $C$DW$T$83, DW_AT_language(DW_LANG_C)
	.dwattr $C$DW$T$83, DW_AT_decl_file("C:/ti/ccsv8/tools/compiler/ti-cgt-msp430_18.1.4.LTS/include/sys/stdint.h")
	.dwattr $C$DW$T$83, DW_AT_decl_line(0x37)
	.dwattr $C$DW$T$83, DW_AT_decl_column(0x19)

$C$DW$T$84	.dwtag  DW_TAG_typedef
	.dwattr $C$DW$T$84, DW_AT_name("__uint_least16_t")
	.dwattr $C$DW$T$84, DW_AT_type(*$C$DW$T$78)
	.dwattr $C$DW$T$84, DW_AT_language(DW_LANG_C)
	.dwattr $C$DW$T$84, DW_AT_decl_file("C:/ti/ccsv8/tools/compiler/ti-cgt-msp430_18.1.4.LTS/include/machine/_types.h")
	.dwattr $C$DW$T$84, DW_AT_decl_line(0x75)
	.dwattr $C$DW$T$84, DW_AT_decl_column(0x14)

$C$DW$T$85	.dwtag  DW_TAG_typedef
	.dwattr $C$DW$T$85, DW_AT_name("__char16_t")
	.dwattr $C$DW$T$85, DW_AT_type(*$C$DW$T$84)
	.dwattr $C$DW$T$85, DW_AT_language(DW_LANG_C)
	.dwattr $C$DW$T$85, DW_AT_decl_file("C:/ti/ccsv8/tools/compiler/ti-cgt-msp430_18.1.4.LTS/include/sys/_types.h")
	.dwattr $C$DW$T$85, DW_AT_decl_line(0x66)
	.dwattr $C$DW$T$85, DW_AT_decl_column(0x1a)

$C$DW$T$86	.dwtag  DW_TAG_typedef
	.dwattr $C$DW$T$86, DW_AT_name("uint_least16_t")
	.dwattr $C$DW$T$86, DW_AT_type(*$C$DW$T$84)
	.dwattr $C$DW$T$86, DW_AT_language(DW_LANG_C)
	.dwattr $C$DW$T$86, DW_AT_decl_file("C:/ti/ccsv8/tools/compiler/ti-cgt-msp430_18.1.4.LTS/include/sys/stdint.h")
	.dwattr $C$DW$T$86, DW_AT_decl_line(0x2e)
	.dwattr $C$DW$T$86, DW_AT_decl_column(0x1a)

$C$DW$T$87	.dwtag  DW_TAG_typedef
	.dwattr $C$DW$T$87, DW_AT_name("__uintptr_t")
	.dwattr $C$DW$T$87, DW_AT_type(*$C$DW$T$78)
	.dwattr $C$DW$T$87, DW_AT_language(DW_LANG_C)
	.dwattr $C$DW$T$87, DW_AT_decl_file("C:/ti/ccsv8/tools/compiler/ti-cgt-msp430_18.1.4.LTS/include/machine/_types.h")
	.dwattr $C$DW$T$87, DW_AT_decl_line(0x6d)
	.dwattr $C$DW$T$87, DW_AT_decl_column(0x14)

$C$DW$T$88	.dwtag  DW_TAG_typedef
	.dwattr $C$DW$T$88, DW_AT_name("uintptr_t")
	.dwattr $C$DW$T$88, DW_AT_type(*$C$DW$T$87)
	.dwattr $C$DW$T$88, DW_AT_language(DW_LANG_C)
	.dwattr $C$DW$T$88, DW_AT_decl_file("C:/ti/ccsv8/tools/compiler/ti-cgt-msp430_18.1.4.LTS/include/sys/_stdint.h")
	.dwattr $C$DW$T$88, DW_AT_decl_line(0x50)
	.dwattr $C$DW$T$88, DW_AT_decl_column(0x16)

$C$DW$T$89	.dwtag  DW_TAG_typedef
	.dwattr $C$DW$T$89, DW_AT_name("uint16_t")
	.dwattr $C$DW$T$89, DW_AT_type(*$C$DW$T$78)
	.dwattr $C$DW$T$89, DW_AT_language(DW_LANG_C)
	.dwattr $C$DW$T$89, DW_AT_decl_file("C:/ti/ccsv8/tools/compiler/ti-cgt-msp430_18.1.4.LTS/include/sys/_stdint.h")
	.dwattr $C$DW$T$89, DW_AT_decl_line(0x3d)
	.dwattr $C$DW$T$89, DW_AT_decl_column(0x15)

$C$DW$T$90	.dwtag  DW_TAG_typedef
	.dwattr $C$DW$T$90, DW_AT_name("__useconds_t")
	.dwattr $C$DW$T$90, DW_AT_type(*$C$DW$T$11)
	.dwattr $C$DW$T$90, DW_AT_language(DW_LANG_C)
	.dwattr $C$DW$T$90, DW_AT_decl_file("C:/ti/ccsv8/tools/compiler/ti-cgt-msp430_18.1.4.LTS/include/sys/_types.h")
	.dwattr $C$DW$T$90, DW_AT_decl_line(0x49)
	.dwattr $C$DW$T$90, DW_AT_decl_column(0x16)

$C$DW$T$91	.dwtag  DW_TAG_typedef
	.dwattr $C$DW$T$91, DW_AT_name("size_t")
	.dwattr $C$DW$T$91, DW_AT_type(*$C$DW$T$11)
	.dwattr $C$DW$T$91, DW_AT_language(DW_LANG_C)
	.dwattr $C$DW$T$91, DW_AT_decl_file("C:/ti/ccsv8/tools/compiler/ti-cgt-msp430_18.1.4.LTS/include/stdio.h")
	.dwattr $C$DW$T$91, DW_AT_decl_line(0x41)
	.dwattr $C$DW$T$91, DW_AT_decl_column(0x19)

$C$DW$T$12	.dwtag  DW_TAG_base_type
	.dwattr $C$DW$T$12, DW_AT_encoding(DW_ATE_signed)
	.dwattr $C$DW$T$12, DW_AT_name("long")
	.dwattr $C$DW$T$12, DW_AT_byte_size(0x04)

$C$DW$T$92	.dwtag  DW_TAG_typedef
	.dwattr $C$DW$T$92, DW_AT_name("__int32_t")
	.dwattr $C$DW$T$92, DW_AT_type(*$C$DW$T$12)
	.dwattr $C$DW$T$92, DW_AT_language(DW_LANG_C)
	.dwattr $C$DW$T$92, DW_AT_decl_file("C:/ti/ccsv8/tools/compiler/ti-cgt-msp430_18.1.4.LTS/include/machine/_types.h")
	.dwattr $C$DW$T$92, DW_AT_decl_line(0x3a)
	.dwattr $C$DW$T$92, DW_AT_decl_column(0x10)

$C$DW$T$93	.dwtag  DW_TAG_typedef
	.dwattr $C$DW$T$93, DW_AT_name("__blksize_t")
	.dwattr $C$DW$T$93, DW_AT_type(*$C$DW$T$92)
	.dwattr $C$DW$T$93, DW_AT_language(DW_LANG_C)
	.dwattr $C$DW$T$93, DW_AT_decl_file("C:/ti/ccsv8/tools/compiler/ti-cgt-msp430_18.1.4.LTS/include/sys/_types.h")
	.dwattr $C$DW$T$93, DW_AT_decl_line(0x2e)
	.dwattr $C$DW$T$93, DW_AT_decl_column(0x13)

$C$DW$T$94	.dwtag  DW_TAG_typedef
	.dwattr $C$DW$T$94, DW_AT_name("__clockid_t")
	.dwattr $C$DW$T$94, DW_AT_type(*$C$DW$T$92)
	.dwattr $C$DW$T$94, DW_AT_language(DW_LANG_C)
	.dwattr $C$DW$T$94, DW_AT_decl_file("C:/ti/ccsv8/tools/compiler/ti-cgt-msp430_18.1.4.LTS/include/sys/_types.h")
	.dwattr $C$DW$T$94, DW_AT_decl_line(0x30)
	.dwattr $C$DW$T$94, DW_AT_decl_column(0x13)

$C$DW$T$95	.dwtag  DW_TAG_typedef
	.dwattr $C$DW$T$95, DW_AT_name("__critical_t")
	.dwattr $C$DW$T$95, DW_AT_type(*$C$DW$T$92)
	.dwattr $C$DW$T$95, DW_AT_language(DW_LANG_C)
	.dwattr $C$DW$T$95, DW_AT_decl_file("C:/ti/ccsv8/tools/compiler/ti-cgt-msp430_18.1.4.LTS/include/machine/_types.h")
	.dwattr $C$DW$T$95, DW_AT_decl_line(0x4b)
	.dwattr $C$DW$T$95, DW_AT_decl_column(0x13)

$C$DW$T$96	.dwtag  DW_TAG_typedef
	.dwattr $C$DW$T$96, DW_AT_name("__int_fast32_t")
	.dwattr $C$DW$T$96, DW_AT_type(*$C$DW$T$92)
	.dwattr $C$DW$T$96, DW_AT_language(DW_LANG_C)
	.dwattr $C$DW$T$96, DW_AT_decl_file("C:/ti/ccsv8/tools/compiler/ti-cgt-msp430_18.1.4.LTS/include/machine/_types.h")
	.dwattr $C$DW$T$96, DW_AT_decl_line(0x58)
	.dwattr $C$DW$T$96, DW_AT_decl_column(0x13)

$C$DW$T$97	.dwtag  DW_TAG_typedef
	.dwattr $C$DW$T$97, DW_AT_name("int_fast32_t")
	.dwattr $C$DW$T$97, DW_AT_type(*$C$DW$T$96)
	.dwattr $C$DW$T$97, DW_AT_language(DW_LANG_C)
	.dwattr $C$DW$T$97, DW_AT_decl_file("C:/ti/ccsv8/tools/compiler/ti-cgt-msp430_18.1.4.LTS/include/sys/stdint.h")
	.dwattr $C$DW$T$97, DW_AT_decl_line(0x34)
	.dwattr $C$DW$T$97, DW_AT_decl_column(0x19)

$C$DW$T$98	.dwtag  DW_TAG_typedef
	.dwattr $C$DW$T$98, DW_AT_name("__int_least32_t")
	.dwattr $C$DW$T$98, DW_AT_type(*$C$DW$T$92)
	.dwattr $C$DW$T$98, DW_AT_language(DW_LANG_C)
	.dwattr $C$DW$T$98, DW_AT_decl_file("C:/ti/ccsv8/tools/compiler/ti-cgt-msp430_18.1.4.LTS/include/machine/_types.h")
	.dwattr $C$DW$T$98, DW_AT_decl_line(0x5c)
	.dwattr $C$DW$T$98, DW_AT_decl_column(0x13)

$C$DW$T$99	.dwtag  DW_TAG_typedef
	.dwattr $C$DW$T$99, DW_AT_name("int_least32_t")
	.dwattr $C$DW$T$99, DW_AT_type(*$C$DW$T$98)
	.dwattr $C$DW$T$99, DW_AT_language(DW_LANG_C)
	.dwattr $C$DW$T$99, DW_AT_decl_file("C:/ti/ccsv8/tools/compiler/ti-cgt-msp430_18.1.4.LTS/include/sys/stdint.h")
	.dwattr $C$DW$T$99, DW_AT_decl_line(0x2a)
	.dwattr $C$DW$T$99, DW_AT_decl_column(0x1a)

$C$DW$T$100	.dwtag  DW_TAG_typedef
	.dwattr $C$DW$T$100, DW_AT_name("__intfptr_t")
	.dwattr $C$DW$T$100, DW_AT_type(*$C$DW$T$92)
	.dwattr $C$DW$T$100, DW_AT_language(DW_LANG_C)
	.dwattr $C$DW$T$100, DW_AT_decl_file("C:/ti/ccsv8/tools/compiler/ti-cgt-msp430_18.1.4.LTS/include/machine/_types.h")
	.dwattr $C$DW$T$100, DW_AT_decl_line(0x4e)
	.dwattr $C$DW$T$100, DW_AT_decl_column(0x13)

$C$DW$T$101	.dwtag  DW_TAG_typedef
	.dwattr $C$DW$T$101, DW_AT_name("__lwpid_t")
	.dwattr $C$DW$T$101, DW_AT_type(*$C$DW$T$92)
	.dwattr $C$DW$T$101, DW_AT_language(DW_LANG_C)
	.dwattr $C$DW$T$101, DW_AT_decl_file("C:/ti/ccsv8/tools/compiler/ti-cgt-msp430_18.1.4.LTS/include/sys/_types.h")
	.dwattr $C$DW$T$101, DW_AT_decl_line(0x38)
	.dwattr $C$DW$T$101, DW_AT_decl_column(0x13)

$C$DW$T$102	.dwtag  DW_TAG_typedef
	.dwattr $C$DW$T$102, DW_AT_name("__pid_t")
	.dwattr $C$DW$T$102, DW_AT_type(*$C$DW$T$92)
	.dwattr $C$DW$T$102, DW_AT_language(DW_LANG_C)
	.dwattr $C$DW$T$102, DW_AT_decl_file("C:/ti/ccsv8/tools/compiler/ti-cgt-msp430_18.1.4.LTS/include/sys/_types.h")
	.dwattr $C$DW$T$102, DW_AT_decl_line(0x3f)
	.dwattr $C$DW$T$102, DW_AT_decl_column(0x13)

$C$DW$T$103	.dwtag  DW_TAG_typedef
	.dwattr $C$DW$T$103, DW_AT_name("__register_t")
	.dwattr $C$DW$T$103, DW_AT_type(*$C$DW$T$92)
	.dwattr $C$DW$T$103, DW_AT_language(DW_LANG_C)
	.dwattr $C$DW$T$103, DW_AT_decl_file("C:/ti/ccsv8/tools/compiler/ti-cgt-msp430_18.1.4.LTS/include/machine/_types.h")
	.dwattr $C$DW$T$103, DW_AT_decl_line(0x5f)
	.dwattr $C$DW$T$103, DW_AT_decl_column(0x13)

$C$DW$T$104	.dwtag  DW_TAG_typedef
	.dwattr $C$DW$T$104, DW_AT_name("__segsz_t")
	.dwattr $C$DW$T$104, DW_AT_type(*$C$DW$T$92)
	.dwattr $C$DW$T$104, DW_AT_language(DW_LANG_C)
	.dwattr $C$DW$T$104, DW_AT_decl_file("C:/ti/ccsv8/tools/compiler/ti-cgt-msp430_18.1.4.LTS/include/machine/_types.h")
	.dwattr $C$DW$T$104, DW_AT_decl_line(0x60)
	.dwattr $C$DW$T$104, DW_AT_decl_column(0x13)

$C$DW$T$105	.dwtag  DW_TAG_typedef
	.dwattr $C$DW$T$105, DW_AT_name("__ssize_t")
	.dwattr $C$DW$T$105, DW_AT_type(*$C$DW$T$92)
	.dwattr $C$DW$T$105, DW_AT_language(DW_LANG_C)
	.dwattr $C$DW$T$105, DW_AT_decl_file("C:/ti/ccsv8/tools/compiler/ti-cgt-msp430_18.1.4.LTS/include/machine/_types.h")
	.dwattr $C$DW$T$105, DW_AT_decl_line(0x62)
	.dwattr $C$DW$T$105, DW_AT_decl_column(0x13)

$C$DW$T$106	.dwtag  DW_TAG_typedef
	.dwattr $C$DW$T$106, DW_AT_name("int32_t")
	.dwattr $C$DW$T$106, DW_AT_type(*$C$DW$T$92)
	.dwattr $C$DW$T$106, DW_AT_language(DW_LANG_C)
	.dwattr $C$DW$T$106, DW_AT_decl_file("C:/ti/ccsv8/tools/compiler/ti-cgt-msp430_18.1.4.LTS/include/sys/_stdint.h")
	.dwattr $C$DW$T$106, DW_AT_decl_line(0x2e)
	.dwattr $C$DW$T$106, DW_AT_decl_column(0x14)

$C$DW$T$107	.dwtag  DW_TAG_typedef
	.dwattr $C$DW$T$107, DW_AT_name("__key_t")
	.dwattr $C$DW$T$107, DW_AT_type(*$C$DW$T$12)
	.dwattr $C$DW$T$107, DW_AT_language(DW_LANG_C)
	.dwattr $C$DW$T$107, DW_AT_decl_file("C:/ti/ccsv8/tools/compiler/ti-cgt-msp430_18.1.4.LTS/include/sys/_types.h")
	.dwattr $C$DW$T$107, DW_AT_decl_line(0x37)
	.dwattr $C$DW$T$107, DW_AT_decl_column(0x0f)

$C$DW$T$108	.dwtag  DW_TAG_typedef
	.dwattr $C$DW$T$108, DW_AT_name("__suseconds_t")
	.dwattr $C$DW$T$108, DW_AT_type(*$C$DW$T$12)
	.dwattr $C$DW$T$108, DW_AT_language(DW_LANG_C)
	.dwattr $C$DW$T$108, DW_AT_decl_file("C:/ti/ccsv8/tools/compiler/ti-cgt-msp430_18.1.4.LTS/include/sys/_types.h")
	.dwattr $C$DW$T$108, DW_AT_decl_line(0x45)
	.dwattr $C$DW$T$108, DW_AT_decl_column(0x0f)

$C$DW$T$109	.dwtag  DW_TAG_typedef
	.dwattr $C$DW$T$109, DW_AT_name("fpos_t")
	.dwattr $C$DW$T$109, DW_AT_type(*$C$DW$T$12)
	.dwattr $C$DW$T$109, DW_AT_language(DW_LANG_C)
	.dwattr $C$DW$T$109, DW_AT_decl_file("C:/ti/ccsv8/tools/compiler/ti-cgt-msp430_18.1.4.LTS/include/stdio.h")
	.dwattr $C$DW$T$109, DW_AT_decl_line(0x5e)
	.dwattr $C$DW$T$109, DW_AT_decl_column(0x0e)

$C$DW$T$13	.dwtag  DW_TAG_base_type
	.dwattr $C$DW$T$13, DW_AT_encoding(DW_ATE_unsigned)
	.dwattr $C$DW$T$13, DW_AT_name("unsigned long")
	.dwattr $C$DW$T$13, DW_AT_byte_size(0x04)

$C$DW$T$110	.dwtag  DW_TAG_typedef
	.dwattr $C$DW$T$110, DW_AT_name("__uint32_t")
	.dwattr $C$DW$T$110, DW_AT_type(*$C$DW$T$13)
	.dwattr $C$DW$T$110, DW_AT_language(DW_LANG_C)
	.dwattr $C$DW$T$110, DW_AT_decl_file("C:/ti/ccsv8/tools/compiler/ti-cgt-msp430_18.1.4.LTS/include/machine/_types.h")
	.dwattr $C$DW$T$110, DW_AT_decl_line(0x3b)
	.dwattr $C$DW$T$110, DW_AT_decl_column(0x18)

$C$DW$T$111	.dwtag  DW_TAG_typedef
	.dwattr $C$DW$T$111, DW_AT_name("__clock_t")
	.dwattr $C$DW$T$111, DW_AT_type(*$C$DW$T$110)
	.dwattr $C$DW$T$111, DW_AT_language(DW_LANG_C)
	.dwattr $C$DW$T$111, DW_AT_decl_file("C:/ti/ccsv8/tools/compiler/ti-cgt-msp430_18.1.4.LTS/include/machine/_types.h")
	.dwattr $C$DW$T$111, DW_AT_decl_line(0x4a)
	.dwattr $C$DW$T$111, DW_AT_decl_column(0x14)

$C$DW$T$112	.dwtag  DW_TAG_typedef
	.dwattr $C$DW$T$112, DW_AT_name("__fflags_t")
	.dwattr $C$DW$T$112, DW_AT_type(*$C$DW$T$110)
	.dwattr $C$DW$T$112, DW_AT_language(DW_LANG_C)
	.dwattr $C$DW$T$112, DW_AT_decl_file("C:/ti/ccsv8/tools/compiler/ti-cgt-msp430_18.1.4.LTS/include/sys/_types.h")
	.dwattr $C$DW$T$112, DW_AT_decl_line(0x31)
	.dwattr $C$DW$T$112, DW_AT_decl_column(0x14)

$C$DW$T$113	.dwtag  DW_TAG_typedef
	.dwattr $C$DW$T$113, DW_AT_name("__fixpt_t")
	.dwattr $C$DW$T$113, DW_AT_type(*$C$DW$T$110)
	.dwattr $C$DW$T$113, DW_AT_language(DW_LANG_C)
	.dwattr $C$DW$T$113, DW_AT_decl_file("C:/ti/ccsv8/tools/compiler/ti-cgt-msp430_18.1.4.LTS/include/sys/_types.h")
	.dwattr $C$DW$T$113, DW_AT_decl_line(0x76)
	.dwattr $C$DW$T$113, DW_AT_decl_column(0x14)

$C$DW$T$114	.dwtag  DW_TAG_typedef
	.dwattr $C$DW$T$114, DW_AT_name("__gid_t")
	.dwattr $C$DW$T$114, DW_AT_type(*$C$DW$T$110)
	.dwattr $C$DW$T$114, DW_AT_language(DW_LANG_C)
	.dwattr $C$DW$T$114, DW_AT_decl_file("C:/ti/ccsv8/tools/compiler/ti-cgt-msp430_18.1.4.LTS/include/sys/_types.h")
	.dwattr $C$DW$T$114, DW_AT_decl_line(0x34)
	.dwattr $C$DW$T$114, DW_AT_decl_column(0x14)

$C$DW$T$115	.dwtag  DW_TAG_typedef
	.dwattr $C$DW$T$115, DW_AT_name("__socklen_t")
	.dwattr $C$DW$T$115, DW_AT_type(*$C$DW$T$110)
	.dwattr $C$DW$T$115, DW_AT_language(DW_LANG_C)
	.dwattr $C$DW$T$115, DW_AT_decl_file("C:/ti/ccsv8/tools/compiler/ti-cgt-msp430_18.1.4.LTS/include/sys/_types.h")
	.dwattr $C$DW$T$115, DW_AT_decl_line(0x44)
	.dwattr $C$DW$T$115, DW_AT_decl_column(0x14)

$C$DW$T$116	.dwtag  DW_TAG_typedef
	.dwattr $C$DW$T$116, DW_AT_name("__time_t")
	.dwattr $C$DW$T$116, DW_AT_type(*$C$DW$T$110)
	.dwattr $C$DW$T$116, DW_AT_language(DW_LANG_C)
	.dwattr $C$DW$T$116, DW_AT_decl_file("C:/ti/ccsv8/tools/compiler/ti-cgt-msp430_18.1.4.LTS/include/machine/_types.h")
	.dwattr $C$DW$T$116, DW_AT_decl_line(0x66)
	.dwattr $C$DW$T$116, DW_AT_decl_column(0x19)

$C$DW$T$117	.dwtag  DW_TAG_typedef
	.dwattr $C$DW$T$117, DW_AT_name("__u_register_t")
	.dwattr $C$DW$T$117, DW_AT_type(*$C$DW$T$110)
	.dwattr $C$DW$T$117, DW_AT_language(DW_LANG_C)
	.dwattr $C$DW$T$117, DW_AT_decl_file("C:/ti/ccsv8/tools/compiler/ti-cgt-msp430_18.1.4.LTS/include/machine/_types.h")
	.dwattr $C$DW$T$117, DW_AT_decl_line(0x78)
	.dwattr $C$DW$T$117, DW_AT_decl_column(0x14)

$C$DW$T$118	.dwtag  DW_TAG_typedef
	.dwattr $C$DW$T$118, DW_AT_name("__uid_t")
	.dwattr $C$DW$T$118, DW_AT_type(*$C$DW$T$110)
	.dwattr $C$DW$T$118, DW_AT_language(DW_LANG_C)
	.dwattr $C$DW$T$118, DW_AT_decl_file("C:/ti/ccsv8/tools/compiler/ti-cgt-msp430_18.1.4.LTS/include/sys/_types.h")
	.dwattr $C$DW$T$118, DW_AT_decl_line(0x48)
	.dwattr $C$DW$T$118, DW_AT_decl_column(0x14)

$C$DW$T$119	.dwtag  DW_TAG_typedef
	.dwattr $C$DW$T$119, DW_AT_name("__uint_fast32_t")
	.dwattr $C$DW$T$119, DW_AT_type(*$C$DW$T$110)
	.dwattr $C$DW$T$119, DW_AT_language(DW_LANG_C)
	.dwattr $C$DW$T$119, DW_AT_decl_file("C:/ti/ccsv8/tools/compiler/ti-cgt-msp430_18.1.4.LTS/include/machine/_types.h")
	.dwattr $C$DW$T$119, DW_AT_decl_line(0x72)
	.dwattr $C$DW$T$119, DW_AT_decl_column(0x14)

$C$DW$T$120	.dwtag  DW_TAG_typedef
	.dwattr $C$DW$T$120, DW_AT_name("uint_fast32_t")
	.dwattr $C$DW$T$120, DW_AT_type(*$C$DW$T$119)
	.dwattr $C$DW$T$120, DW_AT_language(DW_LANG_C)
	.dwattr $C$DW$T$120, DW_AT_decl_file("C:/ti/ccsv8/tools/compiler/ti-cgt-msp430_18.1.4.LTS/include/sys/stdint.h")
	.dwattr $C$DW$T$120, DW_AT_decl_line(0x39)
	.dwattr $C$DW$T$120, DW_AT_decl_column(0x1a)

$C$DW$T$121	.dwtag  DW_TAG_typedef
	.dwattr $C$DW$T$121, DW_AT_name("__uint_least32_t")
	.dwattr $C$DW$T$121, DW_AT_type(*$C$DW$T$110)
	.dwattr $C$DW$T$121, DW_AT_language(DW_LANG_C)
	.dwattr $C$DW$T$121, DW_AT_decl_file("C:/ti/ccsv8/tools/compiler/ti-cgt-msp430_18.1.4.LTS/include/machine/_types.h")
	.dwattr $C$DW$T$121, DW_AT_decl_line(0x76)
	.dwattr $C$DW$T$121, DW_AT_decl_column(0x14)

$C$DW$T$122	.dwtag  DW_TAG_typedef
	.dwattr $C$DW$T$122, DW_AT_name("__char32_t")
	.dwattr $C$DW$T$122, DW_AT_type(*$C$DW$T$121)
	.dwattr $C$DW$T$122, DW_AT_language(DW_LANG_C)
	.dwattr $C$DW$T$122, DW_AT_decl_file("C:/ti/ccsv8/tools/compiler/ti-cgt-msp430_18.1.4.LTS/include/sys/_types.h")
	.dwattr $C$DW$T$122, DW_AT_decl_line(0x67)
	.dwattr $C$DW$T$122, DW_AT_decl_column(0x1a)

$C$DW$T$123	.dwtag  DW_TAG_typedef
	.dwattr $C$DW$T$123, DW_AT_name("uint_least32_t")
	.dwattr $C$DW$T$123, DW_AT_type(*$C$DW$T$121)
	.dwattr $C$DW$T$123, DW_AT_language(DW_LANG_C)
	.dwattr $C$DW$T$123, DW_AT_decl_file("C:/ti/ccsv8/tools/compiler/ti-cgt-msp430_18.1.4.LTS/include/sys/stdint.h")
	.dwattr $C$DW$T$123, DW_AT_decl_line(0x2f)
	.dwattr $C$DW$T$123, DW_AT_decl_column(0x1a)

$C$DW$T$124	.dwtag  DW_TAG_typedef
	.dwattr $C$DW$T$124, DW_AT_name("__uintfptr_t")
	.dwattr $C$DW$T$124, DW_AT_type(*$C$DW$T$110)
	.dwattr $C$DW$T$124, DW_AT_language(DW_LANG_C)
	.dwattr $C$DW$T$124, DW_AT_decl_file("C:/ti/ccsv8/tools/compiler/ti-cgt-msp430_18.1.4.LTS/include/machine/_types.h")
	.dwattr $C$DW$T$124, DW_AT_decl_line(0x68)
	.dwattr $C$DW$T$124, DW_AT_decl_column(0x14)

$C$DW$T$125	.dwtag  DW_TAG_typedef
	.dwattr $C$DW$T$125, DW_AT_name("__vm_offset_t")
	.dwattr $C$DW$T$125, DW_AT_type(*$C$DW$T$110)
	.dwattr $C$DW$T$125, DW_AT_language(DW_LANG_C)
	.dwattr $C$DW$T$125, DW_AT_decl_file("C:/ti/ccsv8/tools/compiler/ti-cgt-msp430_18.1.4.LTS/include/machine/_types.h")
	.dwattr $C$DW$T$125, DW_AT_decl_line(0x79)
	.dwattr $C$DW$T$125, DW_AT_decl_column(0x14)

$C$DW$T$126	.dwtag  DW_TAG_typedef
	.dwattr $C$DW$T$126, DW_AT_name("__vm_paddr_t")
	.dwattr $C$DW$T$126, DW_AT_type(*$C$DW$T$110)
	.dwattr $C$DW$T$126, DW_AT_language(DW_LANG_C)
	.dwattr $C$DW$T$126, DW_AT_decl_file("C:/ti/ccsv8/tools/compiler/ti-cgt-msp430_18.1.4.LTS/include/machine/_types.h")
	.dwattr $C$DW$T$126, DW_AT_decl_line(0x7a)
	.dwattr $C$DW$T$126, DW_AT_decl_column(0x14)

$C$DW$T$127	.dwtag  DW_TAG_typedef
	.dwattr $C$DW$T$127, DW_AT_name("__vm_size_t")
	.dwattr $C$DW$T$127, DW_AT_type(*$C$DW$T$110)
	.dwattr $C$DW$T$127, DW_AT_language(DW_LANG_C)
	.dwattr $C$DW$T$127, DW_AT_decl_file("C:/ti/ccsv8/tools/compiler/ti-cgt-msp430_18.1.4.LTS/include/machine/_types.h")
	.dwattr $C$DW$T$127, DW_AT_decl_line(0x7b)
	.dwattr $C$DW$T$127, DW_AT_decl_column(0x14)

$C$DW$T$128	.dwtag  DW_TAG_typedef
	.dwattr $C$DW$T$128, DW_AT_name("uint32_t")
	.dwattr $C$DW$T$128, DW_AT_type(*$C$DW$T$110)
	.dwattr $C$DW$T$128, DW_AT_language(DW_LANG_C)
	.dwattr $C$DW$T$128, DW_AT_decl_file("C:/ti/ccsv8/tools/compiler/ti-cgt-msp430_18.1.4.LTS/include/sys/_stdint.h")
	.dwattr $C$DW$T$128, DW_AT_decl_line(0x42)
	.dwattr $C$DW$T$128, DW_AT_decl_column(0x15)

$C$DW$T$14	.dwtag  DW_TAG_base_type
	.dwattr $C$DW$T$14, DW_AT_encoding(DW_ATE_signed)
	.dwattr $C$DW$T$14, DW_AT_name("long long")
	.dwattr $C$DW$T$14, DW_AT_byte_size(0x08)

$C$DW$T$129	.dwtag  DW_TAG_typedef
	.dwattr $C$DW$T$129, DW_AT_name("__int64_t")
	.dwattr $C$DW$T$129, DW_AT_type(*$C$DW$T$14)
	.dwattr $C$DW$T$129, DW_AT_language(DW_LANG_C)
	.dwattr $C$DW$T$129, DW_AT_decl_file("C:/ti/ccsv8/tools/compiler/ti-cgt-msp430_18.1.4.LTS/include/machine/_types.h")
	.dwattr $C$DW$T$129, DW_AT_decl_line(0x40)
	.dwattr $C$DW$T$129, DW_AT_decl_column(0x14)

$C$DW$T$130	.dwtag  DW_TAG_typedef
	.dwattr $C$DW$T$130, DW_AT_name("__blkcnt_t")
	.dwattr $C$DW$T$130, DW_AT_type(*$C$DW$T$129)
	.dwattr $C$DW$T$130, DW_AT_language(DW_LANG_C)
	.dwattr $C$DW$T$130, DW_AT_decl_file("C:/ti/ccsv8/tools/compiler/ti-cgt-msp430_18.1.4.LTS/include/sys/_types.h")
	.dwattr $C$DW$T$130, DW_AT_decl_line(0x2f)
	.dwattr $C$DW$T$130, DW_AT_decl_column(0x13)

$C$DW$T$131	.dwtag  DW_TAG_typedef
	.dwattr $C$DW$T$131, DW_AT_name("__id_t")
	.dwattr $C$DW$T$131, DW_AT_type(*$C$DW$T$129)
	.dwattr $C$DW$T$131, DW_AT_language(DW_LANG_C)
	.dwattr $C$DW$T$131, DW_AT_decl_file("C:/ti/ccsv8/tools/compiler/ti-cgt-msp430_18.1.4.LTS/include/sys/_types.h")
	.dwattr $C$DW$T$131, DW_AT_decl_line(0x35)
	.dwattr $C$DW$T$131, DW_AT_decl_column(0x13)

$C$DW$T$132	.dwtag  DW_TAG_typedef
	.dwattr $C$DW$T$132, DW_AT_name("__int_fast64_t")
	.dwattr $C$DW$T$132, DW_AT_type(*$C$DW$T$129)
	.dwattr $C$DW$T$132, DW_AT_language(DW_LANG_C)
	.dwattr $C$DW$T$132, DW_AT_decl_file("C:/ti/ccsv8/tools/compiler/ti-cgt-msp430_18.1.4.LTS/include/machine/_types.h")
	.dwattr $C$DW$T$132, DW_AT_decl_line(0x59)
	.dwattr $C$DW$T$132, DW_AT_decl_column(0x13)

$C$DW$T$133	.dwtag  DW_TAG_typedef
	.dwattr $C$DW$T$133, DW_AT_name("int_fast64_t")
	.dwattr $C$DW$T$133, DW_AT_type(*$C$DW$T$132)
	.dwattr $C$DW$T$133, DW_AT_language(DW_LANG_C)
	.dwattr $C$DW$T$133, DW_AT_decl_file("C:/ti/ccsv8/tools/compiler/ti-cgt-msp430_18.1.4.LTS/include/sys/stdint.h")
	.dwattr $C$DW$T$133, DW_AT_decl_line(0x35)
	.dwattr $C$DW$T$133, DW_AT_decl_column(0x19)

$C$DW$T$134	.dwtag  DW_TAG_typedef
	.dwattr $C$DW$T$134, DW_AT_name("__int_least64_t")
	.dwattr $C$DW$T$134, DW_AT_type(*$C$DW$T$129)
	.dwattr $C$DW$T$134, DW_AT_language(DW_LANG_C)
	.dwattr $C$DW$T$134, DW_AT_decl_file("C:/ti/ccsv8/tools/compiler/ti-cgt-msp430_18.1.4.LTS/include/machine/_types.h")
	.dwattr $C$DW$T$134, DW_AT_decl_line(0x5d)
	.dwattr $C$DW$T$134, DW_AT_decl_column(0x13)

$C$DW$T$135	.dwtag  DW_TAG_typedef
	.dwattr $C$DW$T$135, DW_AT_name("int_least64_t")
	.dwattr $C$DW$T$135, DW_AT_type(*$C$DW$T$134)
	.dwattr $C$DW$T$135, DW_AT_language(DW_LANG_C)
	.dwattr $C$DW$T$135, DW_AT_decl_file("C:/ti/ccsv8/tools/compiler/ti-cgt-msp430_18.1.4.LTS/include/sys/stdint.h")
	.dwattr $C$DW$T$135, DW_AT_decl_line(0x2b)
	.dwattr $C$DW$T$135, DW_AT_decl_column(0x1a)

$C$DW$T$136	.dwtag  DW_TAG_typedef
	.dwattr $C$DW$T$136, DW_AT_name("__intmax_t")
	.dwattr $C$DW$T$136, DW_AT_type(*$C$DW$T$129)
	.dwattr $C$DW$T$136, DW_AT_language(DW_LANG_C)
	.dwattr $C$DW$T$136, DW_AT_decl_file("C:/ti/ccsv8/tools/compiler/ti-cgt-msp430_18.1.4.LTS/include/machine/_types.h")
	.dwattr $C$DW$T$136, DW_AT_decl_line(0x4f)
	.dwattr $C$DW$T$136, DW_AT_decl_column(0x13)

$C$DW$T$137	.dwtag  DW_TAG_typedef
	.dwattr $C$DW$T$137, DW_AT_name("intmax_t")
	.dwattr $C$DW$T$137, DW_AT_type(*$C$DW$T$136)
	.dwattr $C$DW$T$137, DW_AT_language(DW_LANG_C)
	.dwattr $C$DW$T$137, DW_AT_decl_file("C:/ti/ccsv8/tools/compiler/ti-cgt-msp430_18.1.4.LTS/include/sys/_stdint.h")
	.dwattr $C$DW$T$137, DW_AT_decl_line(0x54)
	.dwattr $C$DW$T$137, DW_AT_decl_column(0x15)

$C$DW$T$138	.dwtag  DW_TAG_typedef
	.dwattr $C$DW$T$138, DW_AT_name("__off64_t")
	.dwattr $C$DW$T$138, DW_AT_type(*$C$DW$T$129)
	.dwattr $C$DW$T$138, DW_AT_language(DW_LANG_C)
	.dwattr $C$DW$T$138, DW_AT_decl_file("C:/ti/ccsv8/tools/compiler/ti-cgt-msp430_18.1.4.LTS/include/sys/_types.h")
	.dwattr $C$DW$T$138, DW_AT_decl_line(0x3e)
	.dwattr $C$DW$T$138, DW_AT_decl_column(0x13)

$C$DW$T$139	.dwtag  DW_TAG_typedef
	.dwattr $C$DW$T$139, DW_AT_name("__off_t")
	.dwattr $C$DW$T$139, DW_AT_type(*$C$DW$T$129)
	.dwattr $C$DW$T$139, DW_AT_language(DW_LANG_C)
	.dwattr $C$DW$T$139, DW_AT_decl_file("C:/ti/ccsv8/tools/compiler/ti-cgt-msp430_18.1.4.LTS/include/sys/_types.h")
	.dwattr $C$DW$T$139, DW_AT_decl_line(0x3d)
	.dwattr $C$DW$T$139, DW_AT_decl_column(0x13)

$C$DW$T$140	.dwtag  DW_TAG_typedef
	.dwattr $C$DW$T$140, DW_AT_name("__rlim_t")
	.dwattr $C$DW$T$140, DW_AT_type(*$C$DW$T$129)
	.dwattr $C$DW$T$140, DW_AT_language(DW_LANG_C)
	.dwattr $C$DW$T$140, DW_AT_decl_file("C:/ti/ccsv8/tools/compiler/ti-cgt-msp430_18.1.4.LTS/include/sys/_types.h")
	.dwattr $C$DW$T$140, DW_AT_decl_line(0x40)
	.dwattr $C$DW$T$140, DW_AT_decl_column(0x13)

$C$DW$T$141	.dwtag  DW_TAG_typedef
	.dwattr $C$DW$T$141, DW_AT_name("int64_t")
	.dwattr $C$DW$T$141, DW_AT_type(*$C$DW$T$129)
	.dwattr $C$DW$T$141, DW_AT_language(DW_LANG_C)
	.dwattr $C$DW$T$141, DW_AT_decl_file("C:/ti/ccsv8/tools/compiler/ti-cgt-msp430_18.1.4.LTS/include/sys/_stdint.h")
	.dwattr $C$DW$T$141, DW_AT_decl_line(0x33)
	.dwattr $C$DW$T$141, DW_AT_decl_column(0x14)

$C$DW$T$15	.dwtag  DW_TAG_base_type
	.dwattr $C$DW$T$15, DW_AT_encoding(DW_ATE_unsigned)
	.dwattr $C$DW$T$15, DW_AT_name("unsigned long long")
	.dwattr $C$DW$T$15, DW_AT_byte_size(0x08)

$C$DW$T$142	.dwtag  DW_TAG_typedef
	.dwattr $C$DW$T$142, DW_AT_name("__uint64_t")
	.dwattr $C$DW$T$142, DW_AT_type(*$C$DW$T$15)
	.dwattr $C$DW$T$142, DW_AT_language(DW_LANG_C)
	.dwattr $C$DW$T$142, DW_AT_decl_file("C:/ti/ccsv8/tools/compiler/ti-cgt-msp430_18.1.4.LTS/include/machine/_types.h")
	.dwattr $C$DW$T$142, DW_AT_decl_line(0x45)
	.dwattr $C$DW$T$142, DW_AT_decl_column(0x1c)

$C$DW$T$143	.dwtag  DW_TAG_typedef
	.dwattr $C$DW$T$143, DW_AT_name("__dev_t")
	.dwattr $C$DW$T$143, DW_AT_type(*$C$DW$T$142)
	.dwattr $C$DW$T$143, DW_AT_language(DW_LANG_C)
	.dwattr $C$DW$T$143, DW_AT_decl_file("C:/ti/ccsv8/tools/compiler/ti-cgt-msp430_18.1.4.LTS/include/sys/_types.h")
	.dwattr $C$DW$T$143, DW_AT_decl_line(0x74)
	.dwattr $C$DW$T$143, DW_AT_decl_column(0x14)

$C$DW$T$144	.dwtag  DW_TAG_typedef
	.dwattr $C$DW$T$144, DW_AT_name("__fsblkcnt_t")
	.dwattr $C$DW$T$144, DW_AT_type(*$C$DW$T$142)
	.dwattr $C$DW$T$144, DW_AT_language(DW_LANG_C)
	.dwattr $C$DW$T$144, DW_AT_decl_file("C:/ti/ccsv8/tools/compiler/ti-cgt-msp430_18.1.4.LTS/include/sys/_types.h")
	.dwattr $C$DW$T$144, DW_AT_decl_line(0x32)
	.dwattr $C$DW$T$144, DW_AT_decl_column(0x14)

$C$DW$T$145	.dwtag  DW_TAG_typedef
	.dwattr $C$DW$T$145, DW_AT_name("__fsfilcnt_t")
	.dwattr $C$DW$T$145, DW_AT_type(*$C$DW$T$142)
	.dwattr $C$DW$T$145, DW_AT_language(DW_LANG_C)
	.dwattr $C$DW$T$145, DW_AT_decl_file("C:/ti/ccsv8/tools/compiler/ti-cgt-msp430_18.1.4.LTS/include/sys/_types.h")
	.dwattr $C$DW$T$145, DW_AT_decl_line(0x33)
	.dwattr $C$DW$T$145, DW_AT_decl_column(0x14)

$C$DW$T$146	.dwtag  DW_TAG_typedef
	.dwattr $C$DW$T$146, DW_AT_name("__ino_t")
	.dwattr $C$DW$T$146, DW_AT_type(*$C$DW$T$142)
	.dwattr $C$DW$T$146, DW_AT_language(DW_LANG_C)
	.dwattr $C$DW$T$146, DW_AT_decl_file("C:/ti/ccsv8/tools/compiler/ti-cgt-msp430_18.1.4.LTS/include/sys/_types.h")
	.dwattr $C$DW$T$146, DW_AT_decl_line(0x36)
	.dwattr $C$DW$T$146, DW_AT_decl_column(0x14)

$C$DW$T$147	.dwtag  DW_TAG_typedef
	.dwattr $C$DW$T$147, DW_AT_name("__nlink_t")
	.dwattr $C$DW$T$147, DW_AT_type(*$C$DW$T$142)
	.dwattr $C$DW$T$147, DW_AT_language(DW_LANG_C)
	.dwattr $C$DW$T$147, DW_AT_decl_file("C:/ti/ccsv8/tools/compiler/ti-cgt-msp430_18.1.4.LTS/include/sys/_types.h")
	.dwattr $C$DW$T$147, DW_AT_decl_line(0x3c)
	.dwattr $C$DW$T$147, DW_AT_decl_column(0x14)

$C$DW$T$148	.dwtag  DW_TAG_typedef
	.dwattr $C$DW$T$148, DW_AT_name("__uint_fast64_t")
	.dwattr $C$DW$T$148, DW_AT_type(*$C$DW$T$142)
	.dwattr $C$DW$T$148, DW_AT_language(DW_LANG_C)
	.dwattr $C$DW$T$148, DW_AT_decl_file("C:/ti/ccsv8/tools/compiler/ti-cgt-msp430_18.1.4.LTS/include/machine/_types.h")
	.dwattr $C$DW$T$148, DW_AT_decl_line(0x73)
	.dwattr $C$DW$T$148, DW_AT_decl_column(0x14)

$C$DW$T$149	.dwtag  DW_TAG_typedef
	.dwattr $C$DW$T$149, DW_AT_name("uint_fast64_t")
	.dwattr $C$DW$T$149, DW_AT_type(*$C$DW$T$148)
	.dwattr $C$DW$T$149, DW_AT_language(DW_LANG_C)
	.dwattr $C$DW$T$149, DW_AT_decl_file("C:/ti/ccsv8/tools/compiler/ti-cgt-msp430_18.1.4.LTS/include/sys/stdint.h")
	.dwattr $C$DW$T$149, DW_AT_decl_line(0x3a)
	.dwattr $C$DW$T$149, DW_AT_decl_column(0x1a)

$C$DW$T$150	.dwtag  DW_TAG_typedef
	.dwattr $C$DW$T$150, DW_AT_name("__uint_least64_t")
	.dwattr $C$DW$T$150, DW_AT_type(*$C$DW$T$142)
	.dwattr $C$DW$T$150, DW_AT_language(DW_LANG_C)
	.dwattr $C$DW$T$150, DW_AT_decl_file("C:/ti/ccsv8/tools/compiler/ti-cgt-msp430_18.1.4.LTS/include/machine/_types.h")
	.dwattr $C$DW$T$150, DW_AT_decl_line(0x77)
	.dwattr $C$DW$T$150, DW_AT_decl_column(0x14)

$C$DW$T$151	.dwtag  DW_TAG_typedef
	.dwattr $C$DW$T$151, DW_AT_name("uint_least64_t")
	.dwattr $C$DW$T$151, DW_AT_type(*$C$DW$T$150)
	.dwattr $C$DW$T$151, DW_AT_language(DW_LANG_C)
	.dwattr $C$DW$T$151, DW_AT_decl_file("C:/ti/ccsv8/tools/compiler/ti-cgt-msp430_18.1.4.LTS/include/sys/stdint.h")
	.dwattr $C$DW$T$151, DW_AT_decl_line(0x30)
	.dwattr $C$DW$T$151, DW_AT_decl_column(0x1a)

$C$DW$T$152	.dwtag  DW_TAG_typedef
	.dwattr $C$DW$T$152, DW_AT_name("__uintmax_t")
	.dwattr $C$DW$T$152, DW_AT_type(*$C$DW$T$142)
	.dwattr $C$DW$T$152, DW_AT_language(DW_LANG_C)
	.dwattr $C$DW$T$152, DW_AT_decl_file("C:/ti/ccsv8/tools/compiler/ti-cgt-msp430_18.1.4.LTS/include/machine/_types.h")
	.dwattr $C$DW$T$152, DW_AT_decl_line(0x69)
	.dwattr $C$DW$T$152, DW_AT_decl_column(0x14)

$C$DW$T$153	.dwtag  DW_TAG_typedef
	.dwattr $C$DW$T$153, DW_AT_name("__rman_res_t")
	.dwattr $C$DW$T$153, DW_AT_type(*$C$DW$T$152)
	.dwattr $C$DW$T$153, DW_AT_language(DW_LANG_C)
	.dwattr $C$DW$T$153, DW_AT_decl_file("C:/ti/ccsv8/tools/compiler/ti-cgt-msp430_18.1.4.LTS/include/sys/_types.h")
	.dwattr $C$DW$T$153, DW_AT_decl_line(0x8f)
	.dwattr $C$DW$T$153, DW_AT_decl_column(0x19)

$C$DW$T$154	.dwtag  DW_TAG_typedef
	.dwattr $C$DW$T$154, DW_AT_name("uintmax_t")
	.dwattr $C$DW$T$154, DW_AT_type(*$C$DW$T$152)
	.dwattr $C$DW$T$154, DW_AT_language(DW_LANG_C)
	.dwattr $C$DW$T$154, DW_AT_decl_file("C:/ti/ccsv8/tools/compiler/ti-cgt-msp430_18.1.4.LTS/include/sys/_stdint.h")
	.dwattr $C$DW$T$154, DW_AT_decl_line(0x58)
	.dwattr $C$DW$T$154, DW_AT_decl_column(0x16)

$C$DW$T$155	.dwtag  DW_TAG_typedef
	.dwattr $C$DW$T$155, DW_AT_name("uint64_t")
	.dwattr $C$DW$T$155, DW_AT_type(*$C$DW$T$142)
	.dwattr $C$DW$T$155, DW_AT_language(DW_LANG_C)
	.dwattr $C$DW$T$155, DW_AT_decl_file("C:/ti/ccsv8/tools/compiler/ti-cgt-msp430_18.1.4.LTS/include/sys/_stdint.h")
	.dwattr $C$DW$T$155, DW_AT_decl_line(0x47)
	.dwattr $C$DW$T$155, DW_AT_decl_column(0x15)

$C$DW$T$16	.dwtag  DW_TAG_base_type
	.dwattr $C$DW$T$16, DW_AT_encoding(DW_ATE_float)
	.dwattr $C$DW$T$16, DW_AT_name("float")
	.dwattr $C$DW$T$16, DW_AT_byte_size(0x04)

$C$DW$T$156	.dwtag  DW_TAG_typedef
	.dwattr $C$DW$T$156, DW_AT_name("__float_t")
	.dwattr $C$DW$T$156, DW_AT_type(*$C$DW$T$16)
	.dwattr $C$DW$T$156, DW_AT_language(DW_LANG_C)
	.dwattr $C$DW$T$156, DW_AT_decl_file("C:/ti/ccsv8/tools/compiler/ti-cgt-msp430_18.1.4.LTS/include/machine/_types.h")
	.dwattr $C$DW$T$156, DW_AT_decl_line(0x4d)
	.dwattr $C$DW$T$156, DW_AT_decl_column(0x10)

$C$DW$T$157	.dwtag  DW_TAG_typedef
	.dwattr $C$DW$T$157, DW_AT_name("float_t")
	.dwattr $C$DW$T$157, DW_AT_type(*$C$DW$T$16)
	.dwattr $C$DW$T$157, DW_AT_language(DW_LANG_C)
	.dwattr $C$DW$T$157, DW_AT_decl_file("C:/ti/ccsv8/tools/compiler/ti-cgt-msp430_18.1.4.LTS/include/math.h")
	.dwattr $C$DW$T$157, DW_AT_decl_line(0x110)
	.dwattr $C$DW$T$157, DW_AT_decl_column(0x0f)

$C$DW$T$17	.dwtag  DW_TAG_base_type
	.dwattr $C$DW$T$17, DW_AT_encoding(DW_ATE_float)
	.dwattr $C$DW$T$17, DW_AT_name("double")
	.dwattr $C$DW$T$17, DW_AT_byte_size(0x08)

$C$DW$T$160	.dwtag  DW_TAG_typedef
	.dwattr $C$DW$T$160, DW_AT_name("__double_t")
	.dwattr $C$DW$T$160, DW_AT_type(*$C$DW$T$17)
	.dwattr $C$DW$T$160, DW_AT_language(DW_LANG_C)
	.dwattr $C$DW$T$160, DW_AT_decl_file("C:/ti/ccsv8/tools/compiler/ti-cgt-msp430_18.1.4.LTS/include/machine/_types.h")
	.dwattr $C$DW$T$160, DW_AT_decl_line(0x4c)
	.dwattr $C$DW$T$160, DW_AT_decl_column(0x11)

$C$DW$T$161	.dwtag  DW_TAG_typedef
	.dwattr $C$DW$T$161, DW_AT_name("double_t")
	.dwattr $C$DW$T$161, DW_AT_type(*$C$DW$T$17)
	.dwattr $C$DW$T$161, DW_AT_language(DW_LANG_C)
	.dwattr $C$DW$T$161, DW_AT_decl_file("C:/ti/ccsv8/tools/compiler/ti-cgt-msp430_18.1.4.LTS/include/math.h")
	.dwattr $C$DW$T$161, DW_AT_decl_line(0x10f)
	.dwattr $C$DW$T$161, DW_AT_decl_column(0x10)

$C$DW$T$18	.dwtag  DW_TAG_base_type
	.dwattr $C$DW$T$18, DW_AT_encoding(DW_ATE_float)
	.dwattr $C$DW$T$18, DW_AT_name("long double")
	.dwattr $C$DW$T$18, DW_AT_byte_size(0x08)

$C$DW$T$28	.dwtag  DW_TAG_pointer_type
	.dwattr $C$DW$T$28, DW_AT_type(*$C$DW$T$6)
	.dwattr $C$DW$T$28, DW_AT_address_class(0x10)

$C$DW$T$162	.dwtag  DW_TAG_typedef
	.dwattr $C$DW$T$162, DW_AT_name("__va_list")
	.dwattr $C$DW$T$162, DW_AT_type(*$C$DW$T$28)
	.dwattr $C$DW$T$162, DW_AT_language(DW_LANG_C)
	.dwattr $C$DW$T$162, DW_AT_decl_file("C:/ti/ccsv8/tools/compiler/ti-cgt-msp430_18.1.4.LTS/include/machine/_types.h")
	.dwattr $C$DW$T$162, DW_AT_decl_line(0x8d)
	.dwattr $C$DW$T$162, DW_AT_decl_column(0x0f)

$C$DW$T$163	.dwtag  DW_TAG_typedef
	.dwattr $C$DW$T$163, DW_AT_name("va_list")
	.dwattr $C$DW$T$163, DW_AT_type(*$C$DW$T$162)
	.dwattr $C$DW$T$163, DW_AT_language(DW_LANG_C)
	.dwattr $C$DW$T$163, DW_AT_decl_file("C:/ti/ccsv8/tools/compiler/ti-cgt-msp430_18.1.4.LTS/include/stdarg.h")
	.dwattr $C$DW$T$163, DW_AT_decl_line(0x33)
	.dwattr $C$DW$T$163, DW_AT_decl_column(0x13)

$C$DW$T$164	.dwtag  DW_TAG_const_type
	.dwattr $C$DW$T$164, DW_AT_type(*$C$DW$T$6)


$C$DW$T$165	.dwtag  DW_TAG_array_type
	.dwattr $C$DW$T$165, DW_AT_type(*$C$DW$T$164)
	.dwattr $C$DW$T$165, DW_AT_language(DW_LANG_C)
	.dwattr $C$DW$T$165, DW_AT_byte_size(0x04)
$C$DW$140	.dwtag  DW_TAG_subrange_type
	.dwattr $C$DW$140, DW_AT_upper_bound(0x03)

	.dwendtag $C$DW$T$165


$C$DW$T$166	.dwtag  DW_TAG_array_type
	.dwattr $C$DW$T$166, DW_AT_type(*$C$DW$T$6)
	.dwattr $C$DW$T$166, DW_AT_language(DW_LANG_C)
	.dwattr $C$DW$T$166, DW_AT_byte_size(0x03)
$C$DW$141	.dwtag  DW_TAG_subrange_type
	.dwattr $C$DW$141, DW_AT_upper_bound(0x02)

	.dwendtag $C$DW$T$166


$C$DW$T$19	.dwtag  DW_TAG_structure_type
	.dwattr $C$DW$T$19, DW_AT_name("__mq")
	.dwattr $C$DW$T$19, DW_AT_declaration
	.dwattr $C$DW$T$19, DW_AT_decl_file("C:/ti/ccsv8/tools/compiler/ti-cgt-msp430_18.1.4.LTS/include/sys/_types.h")
	.dwattr $C$DW$T$19, DW_AT_decl_line(0x47)
	.dwattr $C$DW$T$19, DW_AT_decl_column(0x10)
	.dwendtag $C$DW$T$19

$C$DW$T$167	.dwtag  DW_TAG_pointer_type
	.dwattr $C$DW$T$167, DW_AT_type(*$C$DW$T$19)
	.dwattr $C$DW$T$167, DW_AT_address_class(0x10)

$C$DW$T$168	.dwtag  DW_TAG_typedef
	.dwattr $C$DW$T$168, DW_AT_name("__mqd_t")
	.dwattr $C$DW$T$168, DW_AT_type(*$C$DW$T$167)
	.dwattr $C$DW$T$168, DW_AT_language(DW_LANG_C)
	.dwattr $C$DW$T$168, DW_AT_decl_file("C:/ti/ccsv8/tools/compiler/ti-cgt-msp430_18.1.4.LTS/include/sys/_types.h")
	.dwattr $C$DW$T$168, DW_AT_decl_line(0x47)
	.dwattr $C$DW$T$168, DW_AT_decl_column(0x16)


$C$DW$T$23	.dwtag  DW_TAG_structure_type
	.dwattr $C$DW$T$23, DW_AT_name("__sFILE")
	.dwattr $C$DW$T$23, DW_AT_byte_size(0x0c)
$C$DW$142	.dwtag  DW_TAG_member
	.dwattr $C$DW$142, DW_AT_type(*$C$DW$T$10)
	.dwattr $C$DW$142, DW_AT_name("fd")
	.dwattr $C$DW$142, DW_AT_TI_symbol_name("fd")
	.dwattr $C$DW$142, DW_AT_data_member_location[DW_OP_plus_uconst 0x0]
	.dwattr $C$DW$142, DW_AT_accessibility(DW_ACCESS_public)
	.dwattr $C$DW$142, DW_AT_decl_file("C:/ti/ccsv8/tools/compiler/ti-cgt-msp430_18.1.4.LTS/include/stdio.h")
	.dwattr $C$DW$142, DW_AT_decl_line(0x45)
	.dwattr $C$DW$142, DW_AT_decl_column(0x0b)

$C$DW$143	.dwtag  DW_TAG_member
	.dwattr $C$DW$143, DW_AT_type(*$C$DW$T$22)
	.dwattr $C$DW$143, DW_AT_name("buf")
	.dwattr $C$DW$143, DW_AT_TI_symbol_name("buf")
	.dwattr $C$DW$143, DW_AT_data_member_location[DW_OP_plus_uconst 0x2]
	.dwattr $C$DW$143, DW_AT_accessibility(DW_ACCESS_public)
	.dwattr $C$DW$143, DW_AT_decl_file("C:/ti/ccsv8/tools/compiler/ti-cgt-msp430_18.1.4.LTS/include/stdio.h")
	.dwattr $C$DW$143, DW_AT_decl_line(0x46)
	.dwattr $C$DW$143, DW_AT_decl_column(0x16)

$C$DW$144	.dwtag  DW_TAG_member
	.dwattr $C$DW$144, DW_AT_type(*$C$DW$T$22)
	.dwattr $C$DW$144, DW_AT_name("pos")
	.dwattr $C$DW$144, DW_AT_TI_symbol_name("pos")
	.dwattr $C$DW$144, DW_AT_data_member_location[DW_OP_plus_uconst 0x4]
	.dwattr $C$DW$144, DW_AT_accessibility(DW_ACCESS_public)
	.dwattr $C$DW$144, DW_AT_decl_file("C:/ti/ccsv8/tools/compiler/ti-cgt-msp430_18.1.4.LTS/include/stdio.h")
	.dwattr $C$DW$144, DW_AT_decl_line(0x47)
	.dwattr $C$DW$144, DW_AT_decl_column(0x16)

$C$DW$145	.dwtag  DW_TAG_member
	.dwattr $C$DW$145, DW_AT_type(*$C$DW$T$22)
	.dwattr $C$DW$145, DW_AT_name("bufend")
	.dwattr $C$DW$145, DW_AT_TI_symbol_name("bufend")
	.dwattr $C$DW$145, DW_AT_data_member_location[DW_OP_plus_uconst 0x6]
	.dwattr $C$DW$145, DW_AT_accessibility(DW_ACCESS_public)
	.dwattr $C$DW$145, DW_AT_decl_file("C:/ti/ccsv8/tools/compiler/ti-cgt-msp430_18.1.4.LTS/include/stdio.h")
	.dwattr $C$DW$145, DW_AT_decl_line(0x48)
	.dwattr $C$DW$145, DW_AT_decl_column(0x16)

$C$DW$146	.dwtag  DW_TAG_member
	.dwattr $C$DW$146, DW_AT_type(*$C$DW$T$22)
	.dwattr $C$DW$146, DW_AT_name("buff_stop")
	.dwattr $C$DW$146, DW_AT_TI_symbol_name("buff_stop")
	.dwattr $C$DW$146, DW_AT_data_member_location[DW_OP_plus_uconst 0x8]
	.dwattr $C$DW$146, DW_AT_accessibility(DW_ACCESS_public)
	.dwattr $C$DW$146, DW_AT_decl_file("C:/ti/ccsv8/tools/compiler/ti-cgt-msp430_18.1.4.LTS/include/stdio.h")
	.dwattr $C$DW$146, DW_AT_decl_line(0x49)
	.dwattr $C$DW$146, DW_AT_decl_column(0x16)

$C$DW$147	.dwtag  DW_TAG_member
	.dwattr $C$DW$147, DW_AT_type(*$C$DW$T$11)
	.dwattr $C$DW$147, DW_AT_name("flags")
	.dwattr $C$DW$147, DW_AT_TI_symbol_name("flags")
	.dwattr $C$DW$147, DW_AT_data_member_location[DW_OP_plus_uconst 0xa]
	.dwattr $C$DW$147, DW_AT_accessibility(DW_ACCESS_public)
	.dwattr $C$DW$147, DW_AT_decl_file("C:/ti/ccsv8/tools/compiler/ti-cgt-msp430_18.1.4.LTS/include/stdio.h")
	.dwattr $C$DW$147, DW_AT_decl_line(0x4a)
	.dwattr $C$DW$147, DW_AT_decl_column(0x16)

	.dwattr $C$DW$T$23, DW_AT_decl_file("C:/ti/ccsv8/tools/compiler/ti-cgt-msp430_18.1.4.LTS/include/stdio.h")
	.dwattr $C$DW$T$23, DW_AT_decl_line(0x44)
	.dwattr $C$DW$T$23, DW_AT_decl_column(0x08)
	.dwendtag $C$DW$T$23

$C$DW$T$169	.dwtag  DW_TAG_typedef
	.dwattr $C$DW$T$169, DW_AT_name("FILE")
	.dwattr $C$DW$T$169, DW_AT_type(*$C$DW$T$23)
	.dwattr $C$DW$T$169, DW_AT_language(DW_LANG_C)
	.dwattr $C$DW$T$169, DW_AT_decl_file("C:/ti/ccsv8/tools/compiler/ti-cgt-msp430_18.1.4.LTS/include/stdio.h")
	.dwattr $C$DW$T$169, DW_AT_decl_line(0x4f)
	.dwattr $C$DW$T$169, DW_AT_decl_column(0x18)


$C$DW$T$20	.dwtag  DW_TAG_structure_type
	.dwattr $C$DW$T$20, DW_AT_name("__timer")
	.dwattr $C$DW$T$20, DW_AT_declaration
	.dwattr $C$DW$T$20, DW_AT_decl_file("C:/ti/ccsv8/tools/compiler/ti-cgt-msp430_18.1.4.LTS/include/sys/_types.h")
	.dwattr $C$DW$T$20, DW_AT_decl_line(0x46)
	.dwattr $C$DW$T$20, DW_AT_decl_column(0x10)
	.dwendtag $C$DW$T$20

$C$DW$T$170	.dwtag  DW_TAG_pointer_type
	.dwattr $C$DW$T$170, DW_AT_type(*$C$DW$T$20)
	.dwattr $C$DW$T$170, DW_AT_address_class(0x10)

$C$DW$T$171	.dwtag  DW_TAG_typedef
	.dwattr $C$DW$T$171, DW_AT_name("__timer_t")
	.dwattr $C$DW$T$171, DW_AT_type(*$C$DW$T$170)
	.dwattr $C$DW$T$171, DW_AT_language(DW_LANG_C)
	.dwattr $C$DW$T$171, DW_AT_decl_file("C:/ti/ccsv8/tools/compiler/ti-cgt-msp430_18.1.4.LTS/include/sys/_types.h")
	.dwattr $C$DW$T$171, DW_AT_decl_line(0x46)
	.dwattr $C$DW$T$171, DW_AT_decl_column(0x19)

	.dwattr $C$DW$CU, DW_AT_language(DW_LANG_C)

;***************************************************************
;* DWARF CIE ENTRIES                                           *
;***************************************************************

$C$DW$CIE	.dwcie 16
	.dwcfi	cfa_register, 1
	.dwcfi	cfa_offset, 0
	.dwcfi	same_value, 0
	.dwcfi	same_value, 1
	.dwcfi	same_value, 3
	.dwcfi	same_value, 4
	.dwcfi	same_value, 5
	.dwcfi	same_value, 6
	.dwcfi	same_value, 7
	.dwcfi	same_value, 8
	.dwcfi	same_value, 9
	.dwcfi	same_value, 10
	.dwendentry

;***************************************************************
;* DWARF REGISTER MAP                                          *
;***************************************************************

$C$DW$148	.dwtag  DW_TAG_TI_assign_register
	.dwattr $C$DW$148, DW_AT_name("PC")
	.dwattr $C$DW$148, DW_AT_location[DW_OP_reg0]

$C$DW$149	.dwtag  DW_TAG_TI_assign_register
	.dwattr $C$DW$149, DW_AT_name("SP")
	.dwattr $C$DW$149, DW_AT_location[DW_OP_reg1]

$C$DW$150	.dwtag  DW_TAG_TI_assign_register
	.dwattr $C$DW$150, DW_AT_name("SR")
	.dwattr $C$DW$150, DW_AT_location[DW_OP_reg2]

$C$DW$151	.dwtag  DW_TAG_TI_assign_register
	.dwattr $C$DW$151, DW_AT_name("CG")
	.dwattr $C$DW$151, DW_AT_location[DW_OP_reg3]

$C$DW$152	.dwtag  DW_TAG_TI_assign_register
	.dwattr $C$DW$152, DW_AT_name("r4")
	.dwattr $C$DW$152, DW_AT_location[DW_OP_reg4]

$C$DW$153	.dwtag  DW_TAG_TI_assign_register
	.dwattr $C$DW$153, DW_AT_name("r5")
	.dwattr $C$DW$153, DW_AT_location[DW_OP_reg5]

$C$DW$154	.dwtag  DW_TAG_TI_assign_register
	.dwattr $C$DW$154, DW_AT_name("r6")
	.dwattr $C$DW$154, DW_AT_location[DW_OP_reg6]

$C$DW$155	.dwtag  DW_TAG_TI_assign_register
	.dwattr $C$DW$155, DW_AT_name("r7")
	.dwattr $C$DW$155, DW_AT_location[DW_OP_reg7]

$C$DW$156	.dwtag  DW_TAG_TI_assign_register
	.dwattr $C$DW$156, DW_AT_name("r8")
	.dwattr $C$DW$156, DW_AT_location[DW_OP_reg8]

$C$DW$157	.dwtag  DW_TAG_TI_assign_register
	.dwattr $C$DW$157, DW_AT_name("r9")
	.dwattr $C$DW$157, DW_AT_location[DW_OP_reg9]

$C$DW$158	.dwtag  DW_TAG_TI_assign_register
	.dwattr $C$DW$158, DW_AT_name("r10")
	.dwattr $C$DW$158, DW_AT_location[DW_OP_reg10]

$C$DW$159	.dwtag  DW_TAG_TI_assign_register
	.dwattr $C$DW$159, DW_AT_name("r11")
	.dwattr $C$DW$159, DW_AT_location[DW_OP_reg11]

$C$DW$160	.dwtag  DW_TAG_TI_assign_register
	.dwattr $C$DW$160, DW_AT_name("r12")
	.dwattr $C$DW$160, DW_AT_location[DW_OP_reg12]

$C$DW$161	.dwtag  DW_TAG_TI_assign_register
	.dwattr $C$DW$161, DW_AT_name("r13")
	.dwattr $C$DW$161, DW_AT_location[DW_OP_reg13]

$C$DW$162	.dwtag  DW_TAG_TI_assign_register
	.dwattr $C$DW$162, DW_AT_name("r14")
	.dwattr $C$DW$162, DW_AT_location[DW_OP_reg14]

$C$DW$163	.dwtag  DW_TAG_TI_assign_register
	.dwattr $C$DW$163, DW_AT_name("r15")
	.dwattr $C$DW$163, DW_AT_location[DW_OP_reg15]

$C$DW$164	.dwtag  DW_TAG_TI_assign_register
	.dwattr $C$DW$164, DW_AT_name("CIE_RETA")
	.dwattr $C$DW$164, DW_AT_location[DW_OP_reg16]

	.dwendtag $C$DW$CU

